opt.bc false wave-diff
BITCODE:opt.bc
SEAHORN_DIR=/home/jkudersk/projects/build-seahorn/release/run/bin
PWD=/home/jkudersk/projects/points-to-bitcode/5.0/clang
PTA=wave-diff


/home/jkudersk/projects/build-seahorn/release/run/bin/seaopt opt.bc -O1 -o ./temps/opt.n.bc

File already exists, skipping seaopt invocation
/home/jkudersk/projects/build-seahorn/release/run/bin/seapp ./temps/opt.n.bc -o ./temps/opt.n.pp.bc --lower-invoke --devirt-functions --unfold-loops-for-dsa=false --simplify-pointer-loops --horn-inline-constructors --horn-inline-allocators --log=extern.off --kill-vaarg=true --externalize-addr-taken-funcs=true --promote-bool-loads=true --lower-switch=false --externalize-function=.*AFA6string.*,_ZN3AFAplERKNS_6stringES2_,_ZN3AFAplEPKcRKNS_6stringE,_ZN3AFAplERKNS_6stringEPKc,_Z18to_standard_stringN3AFA6stringE,.*AFA3map.*,.*MDL_Tree.*,_Z14Initialize_Mapv,_ZN6google8protobuf*,_ZN5boost4asio6detail1*,_ZN5beast* --promote-assumptions=false --instnamer --strip-debug --verify-after-all=true --sea-verifier-noop --log=debug-verifier

File exists, skipping seapp invocation

runsolver --rss-swap-limit 40000 /home/jkudersk/projects/build-seahorn/release/run/bin/seapp ./temps/opt.n.pp.bc -o ./temps/opt.n.pp.smc.bc --smc --sea-dsa-type-aware=false --smc-analyze-only --smc-check-threshold=400 --sea-dsa=butd-cs --smc-pta=wave-diff --print-smc-summary --log=brunch --log=brunch-progress --log=dsa-progress.off --log=smc.off --log=dsa.off --log=alloc-sites.off

runsolver version 3.4.0 (svn: 3018) Copyright (C) 2010-2013 Olivier ROUSSEL

This program is distributed in the hope that it will be useful,
but WITHOUT ANY WARRANTY; without even the implied warranty of
MERCHANTABILITY or FITNESS FOR A PARTICULAR PURPOSE.  See the
GNU General Public License for more details.

NUMA information:
  number of nodes: 2
  memory of node 0: 64409 MiB (26955 MiB free)
  memory of node 1: 64486 MiB (46725 MiB free)
  node distances:
     10  21
     21  10

command line: runsolver --rss-swap-limit 40000 /home/jkudersk/projects/build-seahorn/release/run/bin/seapp ./temps/opt.n.pp.bc -o ./temps/opt.n.pp.smc.bc --smc --sea-dsa-type-aware=false --smc-analyze-only --smc-check-threshold=400 --sea-dsa=butd-cs --smc-pta=wave-diff --print-smc-summary --log=brunch --log=brunch-progress --log=dsa-progress.off --log=smc.off --log=dsa.off --log=alloc-sites.off 

running on 36 cores: 0-9,20-29,10-19,30-31,36-39

Enforcing RSS+Swap limit (soft limit, will send SIGTERM then SIGKILL): 40960000 KiB
Linux 4.15.0-43-generic
Current StackSize limit: 8192 KiB

solver pid=25820, runsolver pid=25819

[startup+0.100081 s]*
/proc/loadavg: 1.23 1.17 1.11 2/931 25821
/proc/meminfo: memFree=75419156/131989204 swapFree=244112016/244398076
[pid=25820] ppid=25819 vsize=96852 memory=52524 CPUtime=0.1 cores=0-39
/proc/25820/stat : 25820 (seapp) R 25819 25820 40453 34836 17777 4194304 10951 0 0 0 9 1 0 0 20 0 1 0 477958338 99176448 13131 18446744073709551615 4194304 21451464 140736584440000 0 0 0 0 0 1098931967 0 0 0 17 3 0 0 0 0 0 21459200 21708072 39727104 140736584442556 140736584442907 140736584442907 140736584445884 0
/proc/25820/statm: 24213 13131 4251 4214 0 9185 0
Current children cumulated CPU time: 0.1 s
Current children cumulated vsize: 96852 KiB
Current children cumulated memory: 52524 KiB

[startup+0.219059 s]*
/proc/loadavg: 1.23 1.17 1.11 2/931 25821
/proc/meminfo: memFree=75388652/131989204 swapFree=244112016/244398076
[pid=25820] ppid=25819 vsize=126100 memory=84344 CPUtime=0.22 cores=0-39
/proc/25820/stat : 25820 (seapp) R 25819 25820 40453 34836 17777 4194304 19340 0 0 0 20 2 0 0 20 0 1 0 477958338 129126400 21086 18446744073709551615 4194304 21451464 140736584440000 0 0 0 0 0 1098931967 0 0 0 17 3 0 0 0 0 0 21459200 21708072 39727104 140736584442556 140736584442907 140736584442907 140736584445884 0
/proc/25820/statm: 31525 21086 4859 4214 0 16497 0
Current children cumulated CPU time: 0.22 s
Current children cumulated vsize: 126100 KiB
Current children cumulated memory: 84344 KiB

[startup+0.318731 s]*
/proc/loadavg: 1.23 1.17 1.11 2/931 25821
/proc/meminfo: memFree=75360752/131989204 swapFree=244112016/244398076
[pid=25820] ppid=25819 vsize=153288 memory=113172 CPUtime=0.32 cores=0-39
/proc/25820/stat : 25820 (seapp) R 25819 25820 40453 34836 17777 4194304 27200 0 0 0 29 3 0 0 20 0 1 0 477958338 156966912 28293 18446744073709551615 4194304 21451464 140736584440000 0 0 0 0 0 1098931967 0 0 0 17 3 0 0 0 0 0 21459200 21708072 39727104 140736584442556 140736584442907 140736584442907 140736584445884 0
/proc/25820/statm: 38322 28293 5323 4214 0 23294 0
Current children cumulated CPU time: 0.32 s
Current children cumulated vsize: 153288 KiB
Current children cumulated memory: 113172 KiB

[startup+0.700216 s]
/proc/loadavg: 1.23 1.17 1.11 2/931 25821
/proc/meminfo: memFree=75306388/131989204 swapFree=244112016/244398076
[pid=25820] ppid=25819 vsize=197820 memory=164848 CPUtime=0.69 cores=0-39
/proc/25820/stat : 25820 (seapp) R 25819 25820 40453 34836 17777 4194304 45619 0 0 0 63 6 0 0 20 0 1 0 477958338 202567680 41212 18446744073709551615 4194304 21451464 140736584440000 0 0 0 0 0 1098931967 0 0 0 17 3 0 0 0 0 0 21459200 21708072 39727104 140736584442556 140736584442907 140736584442907 140736584445884 0
/proc/25820/statm: 49455 41212 2856 4214 0 38430 0
Current children cumulated CPU time: 0.69 s
Current children cumulated vsize: 197820 KiB
Current children cumulated memory: 164848 KiB
Sea Allocators:
	Znaj
	ZnajRKSt9nothrow_t
	Znam
	ZnamRKSt9nothrow_t
	Znwj
	ZnwjRKSt9nothrow_t
	Znwm
	ZnwmRKSt9nothrow_t
	_ZL18createX86MCAsmInfoRKN4llvm14MCRegisterInfoERKNS_6TripleE.stub
	_ZL20createX86MCInstrInfov.stub
	_ZL21initializeDAEPassOnceRN4llvm12PassRegistryE.stub
	_ZL21initializeDAHPassOnceRN4llvm12PassRegistryE.stub
	_ZL21initializePEIPassOnceRN4llvm12PassRegistryE.stub
	_ZL22createX86MCInstPrinterRKN4llvm6TripleEjRKNS_9MCAsmInfoERKNS_11MCInstrInfoERKNS_14MCRegisterInfoE.stub
	_ZL22initializeIPCPPassOnceRN4llvm12PassRegistryE.stub
	_ZL22initializeLintPassOnceRN4llvm12PassRegistryE.stub
	_ZL23createX86MCRegisterInfoRKN4llvm6TripleE.stub
	_ZL24createX86MCInstrAnalysisPKN4llvm11MCInstrInfoE.stub
	_ZL24initializePAEvalPassOnceRN4llvm12PassRegistryE.stub
	_ZL25createX86MCRelocationInfoRKN4llvm6TripleERNS_9MCContextE.stub
	_ZL25initializePruneEHPassOnceRN4llvm12PassRegistryE.stub
	_ZL26initializeRegToMemPassOnceRN4llvm12PassRegistryE.stub
	_ZL27initializeCoroEarlyPassOnceRN4llvm12PassRegistryE.stub
	_ZL27initializeCoroElidePassOnceRN4llvm12PassRegistryE.stub
	_ZL27initializeCoroSplitPassOnceRN4llvm12PassRegistryE.stub
	_ZL27initializeDomViewerPassOnceRN4llvm12PassRegistryE.stub
	_ZL27initializeInstCountPassOnceRN4llvm12PassRegistryE.stub
	_ZL27initializeInstNamerPassOnceRN4llvm12PassRegistryE.stub
	_ZL27initializeLegalizerPassOnceRN4llvm12PassRegistryE.stub
	_ZL27initializeLocalizerPassOnceRN4llvm12PassRegistryE.stub
	_ZL28initializeDomPrinterPassOnceRN4llvm12PassRegistryE.stub
	_ZL28initializeLiveStacksPassOnceRN4llvm12PassRegistryE.stub
	_ZL28initializeLoopRerollPassOnceRN4llvm12PassRegistryE.stub
	_ZL28initializeLoopUnrollPassOnceRN4llvm12PassRegistryE.stub
	_ZL28initializeMachineCSEPassOnceRN4llvm12PassRegistryE.stub
	_ZL28initializeMergeICmpsPassOnceRN4llvm12PassRegistryE.stub
	_ZL28initializeObjCARCOptPassOnceRN4llvm12PassRegistryE.stub
	_ZL28initializeShrinkWrapPassOnceRN4llvm12PassRegistryE.stub
	_ZL29initializeBarrierNoopPassOnceRN4llvm12PassRegistryE.stub
	_ZL29initializeCoroCleanupPassOnceRN4llvm12PassRegistryE.stub
	_ZL29initializeCrossDSOCFIPassOnceRN4llvm12PassRegistryE.stub
	_ZL29initializeGlobalMergePassOnceRN4llvm12PassRegistryE.stub
	_ZL29initializeGlobalSplitPassOnceRN4llvm12PassRegistryE.stub
	_ZL29initializeIfConverterPassOnceRN4llvm12PassRegistryE.stub
	_ZL29initializeLowerEmuTLSPassOnceRN4llvm12PassRegistryE.stub
	_ZL29initializeLowerSwitchPassOnceRN4llvm12PassRegistryE.stub
	_ZL29initializeMachineLICMPassOnceRN4llvm12PassRegistryE.stub
	_ZL29initializeMetaRenamerPassOnceRN4llvm12PassRegistryE.stub
	_ZL29initializeSlotIndexesPassOnceRN4llvm12PassRegistryE.stub
	_ZL30initializeArgPromotionPassOnceRN4llvm12PassRegistryE.stub
	_ZL30initializeAtomicExpandPassOnceRN4llvm12PassRegistryE.stub
	_ZL30initializeFixupLEAPassPassOnceRN4llvm12PassRegistryE.stub
	_ZL30initializeGCModuleInfoPassOnceRN4llvm12PassRegistryE.stub
	_ZL30initializeIRTranslatorPassOnceRN4llvm12PassRegistryE.stub
	_ZL30initializeLoopSimplifyPassOnceRN4llvm12PassRegistryE.stub
	_ZL30initializeLoopUnswitchPassOnceRN4llvm12PassRegistryE.stub
	_ZL30initializeOptimizePHIsPassOnceRN4llvm12PassRegistryE.stub
	_ZL30initializeRegionViewerPassOnceRN4llvm12PassRegistryE.stub
	_ZL30initializeStripSymbolsPassOnceRN4llvm12PassRegistryE.stub
	_ZL30initializeTailCallElimPassOnceRN4llvm12PassRegistryE.stub
	_ZL30initializeWinEHPreparePassOnceRN4llvm12PassRegistryE.stub
	_ZL31initializeDCELegacyPassPassOnceRN4llvm12PassRegistryE.stub
	_ZL31initializeDSELegacyPassPassOnceRN4llvm12PassRegistryE.stub
	_ZL31initializeDomOnlyViewerPassOnceRN4llvm12PassRegistryE.stub
	_ZL31initializeFuncletLayoutPassOnceRN4llvm12PassRegistryE.stub
	_ZL31initializeGVNLegacyPassPassOnceRN4llvm12PassRegistryE.stub
	_ZL31initializeJumpThreadingPassOnceRN4llvm12PassRegistryE.stub
	_ZL31initializeLiveIntervalsPassOnceRN4llvm12PassRegistryE.stub
	_ZL31initializeLiveVariablesPassOnceRN4llvm12PassRegistryE.stub
	_ZL31initializeLoopExtractorPassOnceRN4llvm12PassRegistryE.stub
	_ZL31initializeLoopVectorizePassOnceRN4llvm12PassRegistryE.stub
	_ZL31initializeMemDepPrinterPassOnceRN4llvm12PassRegistryE.stub
	_ZL31initializeObjCARCAPElimPassOnceRN4llvm12PassRegistryE.stub
	_ZL31initializeObjCARCExpandPassOnceRN4llvm12PassRegistryE.stub
	_ZL31initializePostDomViewerPassOnceRN4llvm12PassRegistryE.stub
	_ZL31initializeRegBankSelectPassOnceRN4llvm12PassRegistryE.stub
	_ZL31initializeRegionPrinterPassOnceRN4llvm12PassRegistryE.stub
	_ZL31initializeSLPVectorizerPassOnceRN4llvm12PassRegistryE.stub
	_ZL31initializeSimpleInlinerPassOnceRN4llvm12PassRegistryE.stub
	_ZL31initializeSjLjEHPreparePassOnceRN4llvm12PassRegistryE.stub
	_ZL31initializeStackColoringPassOnceRN4llvm12PassRegistryE.stub
	_ZL31initializeTailDuplicatePassOnceRN4llvm12PassRegistryE.stub
	_ZL31initializeWasmEHPreparePassOnceRN4llvm12PassRegistryE.stub
	_ZL32initializeADCELegacyPassPassOnceRN4llvm12PassRegistryE.stub
	_ZL32initializeBDCELegacyPassPassOnceRN4llvm12PassRegistryE.stub
	_ZL32initializeBlockExtractorPassOnceRN4llvm12PassRegistryE.stub
	_ZL32initializeBreakFalseDepsPassOnceRN4llvm12PassRegistryE.stub
	_ZL32initializeCodeGenPreparePassOnceRN4llvm12PassRegistryE.stub
	_ZL32initializeDomOnlyPrinterPassOnceRN4llvm12PassRegistryE.stub
	_ZL32initializeDummyCGSCCPassPassOnceRN4llvm12PassRegistryE.stub
	_ZL32initializeDwarfEHPreparePassOnceRN4llvm12PassRegistryE.stub
	_ZL32initializeFEntryInserterPassOnceRN4llvm12PassRegistryE.stub
	_ZL32initializeFlattenCFGPassPassOnceRN4llvm12PassRegistryE.stub
	_ZL32initializeIRCELegacyPassPassOnceRN4llvm12PassRegistryE.stub
	_ZL32initializeLegacyLICMPassPassOnceRN4llvm12PassRegistryE.stub
	_ZL32initializeLowerTypeTestsPassOnceRN4llvm12PassRegistryE.stub
	_ZL32initializeMachineSinkingPassOnceRN4llvm12PassRegistryE.stub
	_ZL32initializeMergeFunctionsPassOnceRN4llvm12PassRegistryE.stub
	_ZL32initializePHIEliminationPassOnceRN4llvm12PassRegistryE.stub
	_ZL32initializePostDomPrinterPassOnceRN4llvm12PassRegistryE.stub
	_ZL32initializeRegionInfoPassPassOnceRN4llvm12PassRegistryE.stub
	_ZL32initializeSCCPLegacyPassPassOnceRN4llvm12PassRegistryE.stub
	_ZL32initializeSROALegacyPassPassOnceRN4llvm12PassRegistryE.stub
	_ZL32initializeStackProtectorPassOnceRN4llvm12PassRegistryE.stub
	_ZL32initializeStructurizeCFGPassOnceRN4llvm12PassRegistryE.stub
	_ZL32initializeWinEHStatePassPassOnceRN4llvm12PassRegistryE.stub
	_ZL33initializeAliasSetPrinterPassOnceRN4llvm12PassRegistryE.stub
	_ZL33initializeCFGSimplifyPassPassOnceRN4llvm12PassRegistryE.stub
	_ZL33initializeCallGraphViewerPassOnceRN4llvm12PassRegistryE.stub
	_ZL33initializeDelinearizationPassOnceRN4llvm12PassRegistryE.stub
	_ZL33initializeFixupBWInstPassPassOnceRN4llvm12PassRegistryE.stub
	_ZL33initializeLiveDebugValuesPassOnceRN4llvm12PassRegistryE.stub
	_ZL33initializeLiveRangeShrinkPassOnceRN4llvm12PassRegistryE.stub
	_ZL33initializeLoopInterchangePassOnceRN4llvm12PassRegistryE.stub
	_ZL33initializeLowerIntrinsicsPassOnceRN4llvm12PassRegistryE.stub
	_ZL33initializeMachineCombinerPassOnceRN4llvm12PassRegistryE.stub
	_ZL33initializeMachineLoopInfoPassOnceRN4llvm12PassRegistryE.stub
	_ZL33initializeMachineOutlinerPassOnceRN4llvm12PassRegistryE.stub
	_ZL33initializeMemDerefPrinterPassOnceRN4llvm12PassRegistryE.stub
	_ZL33initializeObjCARCContractPassOnceRN4llvm12PassRegistryE.stub
	_ZL33initializePlaceSafepointsPassOnceRN4llvm12PassRegistryE.stub
	_ZL33initializeShadowCallStackPassOnceRN4llvm12PassRegistryE.stub
	_ZL33initializeX86AvoidSFBPassPassOnceRN4llvm12PassRegistryE.stub
	_ZL34initializeAAEvalLegacyPassPassOnceRN4llvm12PassRegistryE.stub
	_ZL34initializeAddressSanitizerPassOnceRN4llvm12PassRegistryE.stub
	_ZL34initializeCFIInstrInserterPassOnceRN4llvm12PassRegistryE.stub
	_ZL34initializeEarlyMachineLICMPassOnceRN4llvm12PassRegistryE.stub
	_ZL34initializeExpandMemCmpPassPassOnceRN4llvm12PassRegistryE.stub
	_ZL34initializeExpandReductionsPassOnceRN4llvm12PassRegistryE.stub
	_ZL34initializeIPSCCPLegacyPassPassOnceRN4llvm12PassRegistryE.stub
	_ZL34initializeLCSSAWrapperPassPassOnceRN4llvm12PassRegistryE.stub
	_ZL34initializeLoopUnrollAndJamPassOnceRN4llvm12PassRegistryE.stub
	_ZL34initializeMachinePipelinerPassOnceRN4llvm12PassRegistryE.stub
	_ZL34initializeMachineSchedulerPassOnceRN4llvm12PassRegistryE.stub
	_ZL34initializeNewGVNLegacyPassPassOnceRN4llvm12PassRegistryE.stub
	_ZL34initializeRegionOnlyViewerPassOnceRN4llvm12PassRegistryE.stub
	_ZL34initializeStackMapLivenessPassOnceRN4llvm12PassRegistryE.stub
	_ZL34initializeStripGCRelocatesPassOnceRN4llvm12PassRegistryE.stub
	_ZL34initializeWriteBitcodePassPassOnceRN4llvm12PassRegistryE.stub
	_ZL35initializeCostModelAnalysisPassOnceRN4llvm12PassRegistryE.stub
	_ZL35initializeDataFlowSanitizerPassOnceRN4llvm12PassRegistryE.stub
	_ZL35initializeEvexToVexInstPassPassOnceRN4llvm12PassRegistryE.stub
	_ZL35initializeGVNSinkLegacyPassPassOnceRN4llvm12PassRegistryE.stub
	_ZL35initializeInstructionSelectPassOnceRN4llvm12PassRegistryE.stub
	_ZL35initializeInterleavedAccessPassOnceRN4llvm12PassRegistryE.stub
	_ZL35initializeIntervalPartitionPassOnceRN4llvm12PassRegistryE.stub
	_ZL35initializeMachineModuleInfoPassOnceRN4llvm12PassRegistryE.stub
	_ZL35initializePatchableFunctionPassOnceRN4llvm12PassRegistryE.stub
	_ZL35initializePeepholeOptimizerPassOnceRN4llvm12PassRegistryE.stub
	_ZL35initializePostDomOnlyViewerPassOnceRN4llvm12PassRegistryE.stub
	_ZL35initializePromoteLegacyPassPassOnceRN4llvm12PassRegistryE.stub
	_ZL35initializeRegionOnlyPrinterPassOnceRN4llvm12PassRegistryE.stub
	_ZL35initializeRegisterCoalescerPassOnceRN4llvm12PassRegistryE.stub
	_ZL35initializeSCEVAAWrapperPassPassOnceRN4llvm12PassRegistryE.stub
	_ZL35initializeSinkingLegacyPassPassOnceRN4llvm12PassRegistryE.stub
	_ZL35initializeStackSlotColoringPassOnceRN4llvm12PassRegistryE.stub
	_ZL35initializeStripDebugDeclarePassOnceRN4llvm12PassRegistryE.stub
	_ZL36initializeBasicAAWrapperPassPassOnceRN4llvm12PassRegistryE.stub
	_ZL36initializeBreakCriticalEdgesPassOnceRN4llvm12PassRegistryE.stub
	_ZL36initializeEarlyCSELegacyPassPassOnceRN4llvm12PassRegistryE.stub
	_ZL36initializeEarlyTailDuplicatePassOnceRN4llvm12PassRegistryE.stub
	_ZL36initializeGVNHoistLegacyPassPassOnceRN4llvm12PassRegistryE.stub
	_ZL36initializeHWAddressSanitizerPassOnceRN4llvm12PassRegistryE.stub
	_ZL36initializeIVUsersWrapperPassPassOnceRN4llvm12PassRegistryE.stub
	_ZL36initializeImplicitNullChecksPassOnceRN4llvm12PassRegistryE.stub
	_ZL36initializeInferAddressSpacesPassOnceRN4llvm12PassRegistryE.stub
	_ZL36initializeLegacyLoopSinkPassPassOnceRN4llvm12PassRegistryE.stub
	_ZL36initializeLiveDebugVariablesPassOnceRN4llvm12PassRegistryE.stub
	_ZL36initializeLocalStackSlotPassPassOnceRN4llvm12PassRegistryE.stub
	_ZL36initializeLoopStrengthReducePassOnceRN4llvm12PassRegistryE.stub
	_ZL36initializeLoopVersioningLICMPassOnceRN4llvm12PassRegistryE.stub
	_ZL36initializeLoopVersioningPassPassOnceRN4llvm12PassRegistryE.stub
	_ZL36initializeMustExecutePrinterPassOnceRN4llvm12PassRegistryE.stub
	_ZL36initializePostDomOnlyPrinterPassOnceRN4llvm12PassRegistryE.stub
	_ZL36initializeStripDeadDebugInfoPassOnceRN4llvm12PassRegistryE.stub
	_ZL36initializeVerifierLegacyPassPassOnceRN4llvm12PassRegistryE.stub
	_ZL36initializeWholeProgramDevirtPassOnceRN4llvm12PassRegistryE.stub
	_ZL37initializeCFGViewerLegacyPassPassOnceRN4llvm12PassRegistryE.stub
	_ZL37initializeCallGraphDOTPrinterPassOnceRN4llvm12PassRegistryE.stub
	_ZL37initializeConstantPropagationPassOnceRN4llvm12PassRegistryE.stub
	_ZL37initializeDeadInstEliminationPassOnceRN4llvm12PassRegistryE.stub
	_ZL37initializeEfficiencySanitizerPassOnceRN4llvm12PassRegistryE.stub
	_ZL37initializeFloat2IntLegacyPassPassOnceRN4llvm12PassRegistryE.stub
	_ZL37initializeGlobalDCELegacyPassPassOnceRN4llvm12PassRegistryE.stub
	_ZL37initializeGlobalOptLegacyPassPassOnceRN4llvm12PassRegistryE.stub
	_ZL37initializeLoopInfoWrapperPassPassOnceRN4llvm12PassRegistryE.stub
	_ZL37initializeLoopLoadEliminationPassOnceRN4llvm12PassRegistryE.stub
	_ZL37initializeMachineVerifierPassPassOnceRN4llvm12PassRegistryE.stub
	_ZL37initializeMemCpyOptLegacyPassPassOnceRN4llvm12PassRegistryE.stub
	_ZL37initializePrintBasicBlockPassPassOnceRN4llvm12PassRegistryE.stub
	_ZL37initializeProcessImplicitDefsPassOnceRN4llvm12PassRegistryE.stub
	_ZL37initializeReachingDefAnalysisPassOnceRN4llvm12PassRegistryE.stub
	_ZL37initializeSafeStackLegacyPassPassOnceRN4llvm12PassRegistryE.stub
	_ZL37initializeSafepointIRVerifierPassOnceRN4llvm12PassRegistryE.stub
	_ZL37initializeSingleLoopExtractorPassOnceRN4llvm12PassRegistryE.stub
	_ZL37initializeWriteThinLTOBitcodePassOnceRN4llvm12PassRegistryE.stub
	_ZL37initializeXRayInstrumentationPassOnceRN4llvm12PassRegistryE.stub
	_ZL38initializeAAResultsWrapperPassPassOnceRN4llvm12PassRegistryE.stub
	_ZL38initializeCFGPrinterLegacyPassPassOnceRN4llvm12PassRegistryE.stub
	_ZL38initializeCallGraphWrapperPassPassOnceRN4llvm12PassRegistryE.stub
	_ZL38initializeGlobalsAAWrapperPassPassOnceRN4llvm12PassRegistryE.stub
	_ZL38initializeIndirectBrExpandPassPassOnceRN4llvm12PassRegistryE.stub
	_ZL38initializeLazyValueInfoPrinterPassOnceRN4llvm12PassRegistryE.stub
	_ZL38initializeLoopDistributeLegacyPassOnceRN4llvm12PassRegistryE.stub
	_ZL38initializeLoopRotateLegacyPassPassOnceRN4llvm12PassRegistryE.stub
	_ZL38initializeLowerExpectIntrinsicPassOnceRN4llvm12PassRegistryE.stub
	_ZL38initializeMachineDominatorTreePassOnceRN4llvm12PassRegistryE.stub
	_ZL38initializeMemorySSAWrapperPassPassOnceRN4llvm12PassRegistryE.stub
	_ZL38initializeObjCARCAAWrapperPassPassOnceRN4llvm12PassRegistryE.stub
	_ZL38initializePhiValuesWrapperPassPassOnceRN4llvm12PassRegistryE.stub
	_ZL38initializePostMachineSchedulerPassOnceRN4llvm12PassRegistryE.stub
	_ZL38initializeScalarizerLegacyPassPassOnceRN4llvm12PassRegistryE.stub
	_ZL38initializeStripNonDebugSymbolsPassOnceRN4llvm12PassRegistryE.stub
	_ZL38initializeUnpackMachineBundlesPassOnceRN4llvm12PassRegistryE.stub
	_ZL38initializeX86CmovConverterPassPassOnceRN4llvm12PassRegistryE.stub
	_ZL38initializeX86CondBrFoldingPassPassOnceRN4llvm12PassRegistryE.stub
	_ZL39initializeDivRemPairsLegacyPassPassOnceRN4llvm12PassRegistryE.stub
	_ZL39initializeEntryExitInstrumenterPassOnceRN4llvm12PassRegistryE.stub
	_ZL39initializeExternalAAWrapperPassPassOnceRN4llvm12PassRegistryE.stub
	_ZL39initializeInternalizeLegacyPassPassOnceRN4llvm12PassRegistryE.stub
	_ZL39initializeLCSSAVerificationPassPassOnceRN4llvm12PassRegistryE.stub
	_ZL39initializeLowerAtomicLegacyPassPassOnceRN4llvm12PassRegistryE.stub
	_ZL39initializeLowerInvokeLegacyPassPassOnceRN4llvm12PassRegistryE.stub
	_ZL39initializeMachineBlockPlacementPassOnceRN4llvm12PassRegistryE.stub
	_ZL39initializeMachineRegionInfoPassPassOnceRN4llvm12PassRegistryE.stub
	_ZL39initializeReassociateLegacyPassPassOnceRN4llvm12PassRegistryE.stub
	_ZL39initializeRegUsageInfoCollectorPassOnceRN4llvm12PassRegistryE.stub
	_ZL39initializeShadowStackGCLoweringPassOnceRN4llvm12PassRegistryE.stub
	_ZL39initializeX86DomainReassignmentPassOnceRN4llvm12PassRegistryE.stub
	_ZL39initializeX86ExecutionDomainFixPassOnceRN4llvm12PassRegistryE.stub
	_ZL40initializeAddressSanitizerModulePassOnceRN4llvm12PassRegistryE.stub
	_ZL40initializeAssumptionCacheTrackerPassOnceRN4llvm12PassRegistryE.stub
	_ZL40initializeCFLAndersAAWrapperPassPassOnceRN4llvm12PassRegistryE.stub
	_ZL40initializeCFLSteensAAWrapperPassPassOnceRN4llvm12PassRegistryE.stub
	_ZL40initializeFinalizeMachineBundlesPassOnceRN4llvm12PassRegistryE.stub
	_ZL40initializeGCOVProfilerLegacyPassPassOnceRN4llvm12PassRegistryE.stub
	_ZL40initializeInstSimplifyLegacyPassPassOnceRN4llvm12PassRegistryE.stub
	_ZL40initializeInterleavedLoadCombinePassOnceRN4llvm12PassRegistryE.stub
	_ZL40initializeLoopDeletionLegacyPassPassOnceRN4llvm12PassRegistryE.stub
	_ZL40initializeMachineCopyPropagationPassOnceRN4llvm12PassRegistryE.stub
	_ZL40initializeModuleDebugInfoPrinterPassOnceRN4llvm12PassRegistryE.stub
	_ZL40initializePrintModulePassWrapperPassOnceRN4llvm12PassRegistryE.stub
	_ZL40initializeTypeBasedAAWrapperPassPassOnceRN4llvm12PassRegistryE.stub
	_ZL40initializeUnifyFunctionExitNodesPassOnceRN4llvm12PassRegistryE.stub
	_ZL41initializeAlwaysInlinerLegacyPassPassOnceRN4llvm12PassRegistryE.stub
	_ZL41initializeCFGOnlyViewerLegacyPassPassOnceRN4llvm12PassRegistryE.stub
	_ZL41initializeConstantMergeLegacyPassPassOnceRN4llvm12PassRegistryE.stub
	_ZL41initializeDemandedBitsWrapperPassPassOnceRN4llvm12PassRegistryE.stub
	_ZL41initializeGuardWideningLegacyPassPassOnceRN4llvm12PassRegistryE.stub
	_ZL41initializeRegUsageInfoPropagationPassOnceRN4llvm12PassRegistryE.stub
	_ZL41initializeSanitizerCoverageModulePassOnceRN4llvm12PassRegistryE.stub
	_ZL42initializeAlignmentFromAssumptionsPassOnceRN4llvm12PassRegistryE.stub
	_ZL42initializeBoundsCheckingLegacyPassPassOnceRN4llvm12PassRegistryE.stub
	_ZL42initializeCFGOnlyPrinterLegacyPassPassOnceRN4llvm12PassRegistryE.stub
	_ZL42initializeDominatorTreeWrapperPassPassOnceRN4llvm12PassRegistryE.stub
	_ZL42initializeEarlyCSEMemSSALegacyPassPassOnceRN4llvm12PassRegistryE.stub
	_ZL42initializeFunctionImportLegacyPassPassOnceRN4llvm12PassRegistryE.stub
	_ZL42initializeIndVarSimplifyLegacyPassPassOnceRN4llvm12PassRegistryE.stub
	_ZL42initializeInstrProfilingLegacyPassPassOnceRN4llvm12PassRegistryE.stub
	_ZL42initializeInstructionCombiningPassPassOnceRN4llvm12PassRegistryE.stub
	_ZL42initializeLazyValueInfoWrapperPassPassOnceRN4llvm12PassRegistryE.stub
	_ZL42initializeLegacyDivergenceAnalysisPassOnceRN4llvm12PassRegistryE.stub
	_ZL42initializeLoopAccessLegacyAnalysisPassOnceRN4llvm12PassRegistryE.stub
	_ZL42initializeMachineDominanceFrontierPassOnceRN4llvm12PassRegistryE.stub
	_ZL42initializeMachinePostDominatorTreePassOnceRN4llvm12PassRegistryE.stub
	_ZL42initializeNameAnonGlobalLegacyPassPassOnceRN4llvm12PassRegistryE.stub
	_ZL42initializePartialInlinerLegacyPassPassOnceRN4llvm12PassRegistryE.stub
	_ZL42initializePrintFunctionPassWrapperPassOnceRN4llvm12PassRegistryE.stub
	_ZL42initializeRewriteSymbolsLegacyPassPassOnceRN4llvm12PassRegistryE.stub
	_ZL42initializeScalarizeMaskedMemIntrinPassOnceRN4llvm12PassRegistryE.stub
	_ZL42initializeX86CallFrameOptimizationPassOnceRN4llvm12PassRegistryE.stub
	_ZL42initializeX86FlagsCopyLoweringPassPassOnceRN4llvm12PassRegistryE.stub
	_ZL43initializeLoopPredicationLegacyPassPassOnceRN4llvm12PassRegistryE.stub
	_ZL43initializeLoopSimplifyCFGLegacyPassPassOnceRN4llvm12PassRegistryE.stub
	_ZL43initializeMachineBlockFrequencyInfoPassOnceRN4llvm12PassRegistryE.stub
	_ZL43initializeMemorySanitizerLegacyPassPassOnceRN4llvm12PassRegistryE.stub
	_ZL43initializeNaryReassociateLegacyPassPassOnceRN4llvm12PassRegistryE.stub
	_ZL43initializePGOMemOPSizeOptLegacyPassPassOnceRN4llvm12PassRegistryE.stub
	_ZL43initializePhysicalRegisterUsageInfoPassOnceRN4llvm12PassRegistryE.stub
	_ZL43initializeThreadSanitizerLegacyPassPassOnceRN4llvm12PassRegistryE.stub
	_ZL43initializeTwoAddressInstructionPassPassOnceRN4llvm12PassRegistryE.stub
	_ZL44initializeCallGraphPrinterLegacyPassPassOnceRN4llvm12PassRegistryE.stub
	_ZL44initializeConstantHoistingLegacyPassPassOnceRN4llvm12PassRegistryE.stub
	_ZL44initializeCorrelatedValuePropagationPassOnceRN4llvm12PassRegistryE.stub
	_ZL44initializeDeadMachineInstructionElimPassOnceRN4llvm12PassRegistryE.stub
	_ZL44initializeHotColdSplittingLegacyPassPassOnceRN4llvm12PassRegistryE.stub
	_ZL44initializeLazyBlockFrequencyInfoPassPassOnceRN4llvm12PassRegistryE.stub
	_ZL44initializeLoopDataPrefetchLegacyPassPassOnceRN4llvm12PassRegistryE.stub
	_ZL44initializeLoopInstSimplifyLegacyPassPassOnceRN4llvm12PassRegistryE.stub
	_ZL44initializeMachineBlockPlacementStatsPassOnceRN4llvm12PassRegistryE.stub
	_ZL44initializeMemorySSAPrinterLegacyPassPassOnceRN4llvm12PassRegistryE.stub
	_ZL44initializeScalarEvolutionWrapperPassPassOnceRN4llvm12PassRegistryE.stub
	_ZL44initializeScopedNoAliasAAWrapperPassPassOnceRN4llvm12PassRegistryE.stub
	_ZL44initializeSeparateConstOffsetFromGEPPassOnceRN4llvm12PassRegistryE.stub
	_ZL44initializeStackSafetyInfoWrapperPassPassOnceRN4llvm12PassRegistryE.stub
	_ZL44initializeStraightLineStrengthReducePassOnceRN4llvm12PassRegistryE.stub
	_ZL44initializeStripNonLineTableDebugInfoPassOnceRN4llvm12PassRegistryE.stub
	_ZL45initializeAddDiscriminatorsLegacyPassPassOnceRN4llvm12PassRegistryE.stub
	_ZL45initializeCallSiteSplittingLegacyPassPassOnceRN4llvm12PassRegistryE.stub
	_ZL45initializeGISelCSEAnalysisWrapperPassPassOnceRN4llvm12PassRegistryE.stub
	_ZL45initializeLoopGuardWideningLegacyPassPassOnceRN4llvm12PassRegistryE.stub
	_ZL45initializeMemoryDependenceWrapperPassPassOnceRN4llvm12PassRegistryE.stub
	_ZL45initializePlaceBackedgeSafepointsImplPassOnceRN4llvm12PassRegistryE.stub
	_ZL46initializeDominanceFrontierWrapperPassPassOnceRN4llvm12PassRegistryE.stub
	_ZL46initializeForceFunctionAttrsLegacyPassPassOnceRN4llvm12PassRegistryE.stub
	_ZL46initializeInferFunctionAttrsLegacyPassPassOnceRN4llvm12PassRegistryE.stub
	_ZL46initializeLibCallsShrinkWrapLegacyPassPassOnceRN4llvm12PassRegistryE.stub
	_ZL46initializeLoopIdiomRecognizeLegacyPassPassOnceRN4llvm12PassRegistryE.stub
	_ZL46initializeMachineBranchProbabilityInfoPassOnceRN4llvm12PassRegistryE.stub
	_ZL46initializeMakeGuardsExplicitLegacyPassPassOnceRN4llvm12PassRegistryE.stub
	_ZL46initializePostDominatorTreeWrapperPassPassOnceRN4llvm12PassRegistryE.stub
	_ZL46initializeSimpleLoopUnswitchLegacyPassPassOnceRN4llvm12PassRegistryE.stub
	_ZL46initializeTargetLibraryInfoWrapperPassPassOnceRN4llvm12PassRegistryE.stub
	_ZL47initializeBlockFrequencyInfoWrapperPassPassOnceRN4llvm12PassRegistryE.stub
	_ZL47initializeCanonicalizeAliasesLegacyPassPassOnceRN4llvm12PassRegistryE.stub
	_ZL47initializeDependenceAnalysisWrapperPassPassOnceRN4llvm12PassRegistryE.stub
	_ZL47initializeLazyBranchProbabilityInfoPassPassOnceRN4llvm12PassRegistryE.stub
	_ZL47initializeLoadStoreVectorizerLegacyPassPassOnceRN4llvm12PassRegistryE.stub
	_ZL47initializeLowerGuardIntrinsicLegacyPassPassOnceRN4llvm12PassRegistryE.stub
	_ZL47initializeModuleSummaryIndexWrapperPassPassOnceRN4llvm12PassRegistryE.stub
	_ZL47initializeProfileSummaryInfoWrapperPassPassOnceRN4llvm12PassRegistryE.stub
	_ZL47initializeSampleProfileLoaderLegacyPassPassOnceRN4llvm12PassRegistryE.stub
	_ZL47initializeStripDeadPrototypesLegacyPassPassOnceRN4llvm12PassRegistryE.stub
	_ZL48initializePredicateInfoPrinterLegacyPassPassOnceRN4llvm12PassRegistryE.stub
	_ZL48initializeSpeculativeExecutionLegacyPassPassOnceRN4llvm12PassRegistryE.stub
	_ZL48initializeTargetTransformInfoWrapperPassPassOnceRN4llvm12PassRegistryE.stub
	_ZL48initializeUnreachableBlockElimLegacyPassPassOnceRN4llvm12PassRegistryE.stub
	_ZL49initializeMergedLoadStoreMotionLegacyPassPassOnceRN4llvm12PassRegistryE.stub
	_ZL49initializePGOInstrumentationGenLegacyPassPassOnceRN4llvm12PassRegistryE.stub
	_ZL49initializePGOInstrumentationUseLegacyPassPassOnceRN4llvm12PassRegistryE.stub
	_ZL49initializePostInlineEntryExitInstrumenterPassOnceRN4llvm12PassRegistryE.stub
	_ZL49initializeWarnMissedTransformationsLegacyPassOnceRN4llvm12PassRegistryE.stub
	_ZL49initializeX86SpeculativeLoadHardeningPassPassOnceRN4llvm12PassRegistryE.stub
	_ZL50initializeAggressiveInstCombinerLegacyPassPassOnceRN4llvm12PassRegistryE.stub
	_ZL50initializeBranchProbabilityInfoWrapperPassPassOnceRN4llvm12PassRegistryE.stub
	_ZL50initializeCalledValuePropagationLegacyPassPassOnceRN4llvm12PassRegistryE.stub
	_ZL50initializeControlHeightReductionLegacyPassPassOnceRN4llvm12PassRegistryE.stub
	_ZL50initializePostOrderFunctionAttrsLegacyPassPassOnceRN4llvm12PassRegistryE.stub
	_ZL50initializeStackSafetyGlobalInfoWrapperPassPassOnceRN4llvm12PassRegistryE.stub
	_ZL51initializeLazyMachineBlockFrequencyInfoPassPassOnceRN4llvm12PassRegistryE.stub
	_ZL51initializePartiallyInlineLibCallsLegacyPassPassOnceRN4llvm12PassRegistryE.stub
	_ZL51initializeRewriteStatepointsForGCLegacyPassPassOnceRN4llvm12PassRegistryE.stub
	_ZL52initializePGOIndirectCallPromotionLegacyPassPassOnceRN4llvm12PassRegistryE.stub
	_ZL52initializePreISelIntrinsicLoweringLegacyPassPassOnceRN4llvm12PassRegistryE.stub
	_ZL54initializeMachineOptimizationRemarkEmitterPassPassOnceRN4llvm12PassRegistryE.stub
	_ZL54initializeOptimizationRemarkEmitterWrapperPassPassOnceRN4llvm12PassRegistryE.stub
	_ZL56initializeEliminateAvailableExternallyLegacyPassPassOnceRN4llvm12PassRegistryE.stub
	_ZL57initializeReversePostOrderFunctionAttrsLegacyPassPassOnceRN4llvm12PassRegistryE.stub
	_ZL9getMemoryj
	_ZN12_GLOBAL__N_113MPPassManager15getOnTheFlyPassEPN4llvm4PassEPKvRNS1_8FunctionE.stub
	_ZN12_GLOBAL__N_113MPPassManager18getAsPMDataManagerEv.stub
	_ZN12_GLOBAL__N_113MPPassManager9getAsPassEv.stub
	_ZN12_GLOBAL__N_123CreateDefaultTimerGroup4callEv.stub
	_ZN12_GLOBAL__N_17RABasic7dequeueEv.stub
	_ZN12_GLOBAL__N_17RABasic7spillerEv.stub
	_ZN12_GLOBAL__N_18RAGreedy7dequeueEv.stub
	_ZN12_GLOBAL__N_18RAGreedy7spillerEv.stub
	_ZN4llvm10InvokeInst6CreateEPNS_12FunctionTypeEPNS_5ValueEPNS_10BasicBlockES6_NS_8ArrayRefIS4_EENS7_INS_17OperandBundleDefTIS4_EEEERKNS_5TwineEPNS_11InstructionE.stub
	_ZN4llvm11raw_ostream10resetColorEv.stub
	_ZN4llvm11raw_ostream11changeColorENS0_6ColorsEbb.stub
	_ZN4llvm11raw_ostream12reverseColorEv.stub
	_ZN4llvm12safe_reallocEPvm
	_ZN4llvm13DICompileUnit7getImplERNS_11LLVMContextEjPNS_6DIFileENS_9StringRefEbS5_jS5_jNS_24MDTupleTypedArrayWrapperINS_15DICompositeTypeEEENS6_INS_7DIScopeEEENS6_INS_26DIGlobalVariableExpressionEEENS6_INS_16DIImportedEntityEEENS6_INS_11DIMacroNodeEEEmbbjbNS_8Metadata11StorageTypeEb.stub
	_ZN4llvm13FPPassManager18getAsPMDataManagerEv.stub
	_ZN4llvm13FPPassManager9getAsPassEv.stub
	_ZN4llvm13ImmutablePass18getAsImmutablePassEv.stub
	_ZN4llvm13PMDataManager15getOnTheFlyPassEPNS_4PassEPKvRNS_8FunctionE.stub
	_ZN4llvm14DIObjCProperty7getImplERNS_11LLVMContextENS_9StringRefEPNS_6DIFileEjS3_S3_jNS_14TypedDINodeRefINS_6DITypeEEENS_8Metadata11StorageTypeEb.stub
	_ZN4llvm14object_creatorI21CodeViewErrorCategoryE4callEv.stub
	_ZN4llvm14object_creatorIN12_GLOBAL__N_112Name2PairMapEE4callEv.stub
	_ZN4llvm14object_creatorIN12_GLOBAL__N_113StatisticInfoEE4callEv.stub
	_ZN4llvm14object_creatorIN12_GLOBAL__N_117CommandLineParserEE4callEv.stub
	_ZN4llvm14object_creatorIN12_GLOBAL__N_118ErrorErrorCategoryEE4callEv.stub
	_ZN4llvm14object_creatorIN12_GLOBAL__N_120FilesToRemoveCleanupEE4callEv
	_ZN4llvm14object_creatorIN12_GLOBAL__N_120FilesToRemoveCleanupEE4callEv.stub
	_ZN4llvm14object_creatorIN12_GLOBAL__N_124BitcodeErrorCategoryTypeEE4callEv.stub
	_ZN4llvm14object_creatorIN12_GLOBAL__N_126InstrProfErrorCategoryTypeEE4callEv.stub
	_ZN4llvm14object_creatorIN12_GLOBAL__N_127SampleProfErrorCategoryTypeEE4callEv.stub
	_ZN4llvm14object_creatorIN12_GLOBAL__N_18EVTArrayEE4callEv.stub
	_ZN4llvm14object_creatorINS_11LLVMContextEE4callEv.stub
	_ZN4llvm14object_creatorINS_11SmallVectorISt4pairINS_18PassManagerBuilder16ExtensionPointTyESt8functionIFvRKS3_RNS_6legacy15PassManagerBaseEEEELj8EEEE4callEv.stub
	_ZN4llvm14object_creatorINS_12DebugCounterEE4callEv.stub
	_ZN4llvm14object_creatorINS_12PassRegistryEE4callEv.stub
	_ZN4llvm14object_creatorINS_12_GLOBAL__N_16legacy14PassTimingInfoEE4callEv.stub
	_ZN4llvm14object_creatorINS_2cl10SubCommandEE4callEv.stub
	_ZN4llvm14object_creatorINS_3sys10SmartMutexILb0EEEE4callEv.stub
	_ZN4llvm14object_creatorINS_3sys10SmartMutexILb1EEEE4callEv.stub
	_ZN4llvm14object_creatorINS_3sys14DynamicLibrary9HandleSetEE4callEv.stub
	_ZN4llvm14object_creatorINS_9OptBisectEE4callEv.stub
	_ZN4llvm14object_creatorINS_9StringMapIPvNS_15MallocAllocatorEEEE4callEv.stub
	_ZN4llvm14object_creatorINSt7__cxx1112basic_stringIcSt11char_traitsIcESaIcEEEE4callEv.stub
	_ZN4llvm14object_creatorISt3setINS_3EVTENS2_14compareRawBitsESaIS2_EEE4callEv.stub
	_ZN4llvm14object_creatorISt6vectorINSt7__cxx1112basic_stringIcSt11char_traitsIcESaIcEEESaIS7_EEE4callEv.stub
	_ZN4llvm14raw_fd_ostream10resetColorEv.stub
	_ZN4llvm14raw_fd_ostream11changeColorENS_11raw_ostream6ColorsEbb.stub
	_ZN4llvm14raw_fd_ostream12reverseColorEv.stub
	_ZN4llvm15CatchSwitchInst14handler_helperEPKNS_5ValueE.stub
	_ZN4llvm15callDefaultCtorIN12_GLOBAL__N_110DomPrinterEEEPNS_4PassEv.stub
	_ZN4llvm15callDefaultCtorIN12_GLOBAL__N_110LoopRerollEEEPNS_4PassEv.stub
	_ZN4llvm15callDefaultCtorIN12_GLOBAL__N_110LoopUnrollEEEPNS_4PassEv.stub
	_ZN4llvm15callDefaultCtorIN12_GLOBAL__N_110MachineCSEEEEPNS_4PassEv.stub
	_ZN4llvm15callDefaultCtorIN12_GLOBAL__N_110MergeICmpsEEEPNS_4PassEv.stub
	_ZN4llvm15callDefaultCtorIN12_GLOBAL__N_110ObjCARCOptEEEPNS_4PassEv.stub
	_ZN4llvm15callDefaultCtorIN12_GLOBAL__N_110ShrinkWrapEEEPNS_4PassEv.stub
	_ZN4llvm15callDefaultCtorIN12_GLOBAL__N_111BarrierNoopEEEPNS_4PassEv.stub
	_ZN4llvm15callDefaultCtorIN12_GLOBAL__N_111CoroCleanupEEEPNS_4PassEv.stub
	_ZN4llvm15callDefaultCtorIN12_GLOBAL__N_111CrossDSOCFIEEEPNS_4PassEv.stub
	_ZN4llvm15callDefaultCtorIN12_GLOBAL__N_111GlobalMergeEEEPNS_4PassEv.stub
	_ZN4llvm15callDefaultCtorIN12_GLOBAL__N_111GlobalSplitEEEPNS_4PassEv.stub
	_ZN4llvm15callDefaultCtorIN12_GLOBAL__N_111IfConverterEEEPNS_4PassEv.stub
	_ZN4llvm15callDefaultCtorIN12_GLOBAL__N_111LowerEmuTLSEEEPNS_4PassEv.stub
	_ZN4llvm15callDefaultCtorIN12_GLOBAL__N_111LowerSwitchEEEPNS_4PassEv.stub
	_ZN4llvm15callDefaultCtorIN12_GLOBAL__N_111MachineLICMEEEPNS_4PassEv.stub
	_ZN4llvm15callDefaultCtorIN12_GLOBAL__N_111MetaRenamerEEEPNS_4PassEv.stub
	_ZN4llvm15callDefaultCtorIN12_GLOBAL__N_112ArgPromotionEEEPNS_4PassEv.stub
	_ZN4llvm15callDefaultCtorIN12_GLOBAL__N_112AtomicExpandEEEPNS_4PassEv.stub
	_ZN4llvm15callDefaultCtorIN12_GLOBAL__N_112CallGraphSCCEEEPNS_4PassEv.stub
	_ZN4llvm15callDefaultCtorIN12_GLOBAL__N_112ExpandPostRAEEEPNS_4PassEv.stub
	_ZN4llvm15callDefaultCtorIN12_GLOBAL__N_112FixupLEAPassEEEPNS_4PassEv.stub
	_ZN4llvm15callDefaultCtorIN12_GLOBAL__N_112LoopSimplifyEEEPNS_4PassEv.stub
	_ZN4llvm15callDefaultCtorIN12_GLOBAL__N_112LoopUnswitchEEEPNS_4PassEv.stub
	_ZN4llvm15callDefaultCtorIN12_GLOBAL__N_112OptimizePHIsEEEPNS_4PassEv.stub
	_ZN4llvm15callDefaultCtorIN12_GLOBAL__N_112RegAllocFastEEEPNS_4PassEv.stub
	_ZN4llvm15callDefaultCtorIN12_GLOBAL__N_112RegionViewerEEEPNS_4PassEv.stub
	_ZN4llvm15callDefaultCtorIN12_GLOBAL__N_112StripSymbolsEEEPNS_4PassEv.stub
	_ZN4llvm15callDefaultCtorIN12_GLOBAL__N_112TailCallElimEEEPNS_4PassEv.stub
	_ZN4llvm15callDefaultCtorIN12_GLOBAL__N_112WinEHPrepareEEEPNS_4PassEv.stub
	_ZN4llvm15callDefaultCtorIN12_GLOBAL__N_113DCELegacyPassEEEPNS_4PassEv.stub
	_ZN4llvm15callDefaultCtorIN12_GLOBAL__N_113DSELegacyPassEEEPNS_4PassEv.stub
	_ZN4llvm15callDefaultCtorIN12_GLOBAL__N_113DomOnlyViewerEEEPNS_4PassEv.stub
	_ZN4llvm15callDefaultCtorIN12_GLOBAL__N_113FuncletLayoutEEEPNS_4PassEv.stub
	_ZN4llvm15callDefaultCtorIN12_GLOBAL__N_113JumpThreadingEEEPNS_4PassEv.stub
	_ZN4llvm15callDefaultCtorIN12_GLOBAL__N_113LoopExtractorEEEPNS_4PassEv.stub
	_ZN4llvm15callDefaultCtorIN12_GLOBAL__N_113LoopVectorizeEEEPNS_4PassEv.stub
	_ZN4llvm15callDefaultCtorIN12_GLOBAL__N_113MemDepPrinterEEEPNS_4PassEv.stub
	_ZN4llvm15callDefaultCtorIN12_GLOBAL__N_113ObjCARCAPElimEEEPNS_4PassEv.stub
	_ZN4llvm15callDefaultCtorIN12_GLOBAL__N_113ObjCARCExpandEEEPNS_4PassEv.stub
	_ZN4llvm15callDefaultCtorIN12_GLOBAL__N_113PostDomViewerEEEPNS_4PassEv.stub
	_ZN4llvm15callDefaultCtorIN12_GLOBAL__N_113RegionPrinterEEEPNS_4PassEv.stub
	_ZN4llvm15callDefaultCtorIN12_GLOBAL__N_113SLPVectorizerEEEPNS_4PassEv.stub
	_ZN4llvm15callDefaultCtorIN12_GLOBAL__N_113ScavengerTestEEEPNS_4PassEv.stub
	_ZN4llvm15callDefaultCtorIN12_GLOBAL__N_113SimpleInlinerEEEPNS_4PassEv.stub
	_ZN4llvm15callDefaultCtorIN12_GLOBAL__N_113SjLjEHPrepareEEEPNS_4PassEv.stub
	_ZN4llvm15callDefaultCtorIN12_GLOBAL__N_113StackColoringEEEPNS_4PassEv.stub
	_ZN4llvm15callDefaultCtorIN12_GLOBAL__N_113TailDuplicateEEEPNS_4PassEv.stub
	_ZN4llvm15callDefaultCtorIN12_GLOBAL__N_113WasmEHPrepareEEEPNS_4PassEv.stub
	_ZN4llvm15callDefaultCtorIN12_GLOBAL__N_114ADCELegacyPassEEEPNS_4PassEv.stub
	_ZN4llvm15callDefaultCtorIN12_GLOBAL__N_114BDCELegacyPassEEEPNS_4PassEv.stub
	_ZN4llvm15callDefaultCtorIN12_GLOBAL__N_114BlockExtractorEEEPNS_4PassEv.stub
	_ZN4llvm15callDefaultCtorIN12_GLOBAL__N_114CodeGenPrepareEEEPNS_4PassEv.stub
	_ZN4llvm15callDefaultCtorIN12_GLOBAL__N_114DomInfoPrinterEEEPNS_4PassEv.stub
	_ZN4llvm15callDefaultCtorIN12_GLOBAL__N_114DomOnlyPrinterEEEPNS_4PassEv.stub
	_ZN4llvm15callDefaultCtorIN12_GLOBAL__N_114DwarfEHPrepareEEEPNS_4PassEv.stub
	_ZN4llvm15callDefaultCtorIN12_GLOBAL__N_114FEntryInserterEEEPNS_4PassEv.stub
	_ZN4llvm15callDefaultCtorIN12_GLOBAL__N_114FlattenCFGPassEEEPNS_4PassEv.stub
	_ZN4llvm15callDefaultCtorIN12_GLOBAL__N_114IRCELegacyPassEEEPNS_4PassEv.stub
	_ZN4llvm15callDefaultCtorIN12_GLOBAL__N_114LegacyLICMPassEEEPNS_4PassEv.stub
	_ZN4llvm15callDefaultCtorIN12_GLOBAL__N_114LowerTypeTestsEEEPNS_4PassEv.stub
	_ZN4llvm15callDefaultCtorIN12_GLOBAL__N_114MachineSinkingEEEPNS_4PassEv.stub
	_ZN4llvm15callDefaultCtorIN12_GLOBAL__N_114MergeFunctionsEEEPNS_4PassEv.stub
	_ZN4llvm15callDefaultCtorIN12_GLOBAL__N_114PHIEliminationEEEPNS_4PassEv.stub
	_ZN4llvm15callDefaultCtorIN12_GLOBAL__N_114PostDomPrinterEEEPNS_4PassEv.stub
	_ZN4llvm15callDefaultCtorIN12_GLOBAL__N_114SCCPLegacyPassEEEPNS_4PassEv.stub
	_ZN4llvm15callDefaultCtorIN12_GLOBAL__N_114StructurizeCFGEEEPNS_4PassEv.stub
	_ZN4llvm15callDefaultCtorIN12_GLOBAL__N_114WinEHStatePassEEEPNS_4PassEv.stub
	_ZN4llvm15callDefaultCtorIN12_GLOBAL__N_115AliasSetPrinterEEEPNS_4PassEv.stub
	_ZN4llvm15callDefaultCtorIN12_GLOBAL__N_115CFGSimplifyPassEEEPNS_4PassEv.stub
	_ZN4llvm15callDefaultCtorIN12_GLOBAL__N_115CallGraphViewerEEEPNS_4PassEv.stub
	_ZN4llvm15callDefaultCtorIN12_GLOBAL__N_115DelinearizationEEEPNS_4PassEv.stub
	_ZN4llvm15callDefaultCtorIN12_GLOBAL__N_115DetectDeadLanesEEEPNS_4PassEv.stub
	_ZN4llvm15callDefaultCtorIN12_GLOBAL__N_115FixupBWInstPassEEEPNS_4PassEv.stub
	_ZN4llvm15callDefaultCtorIN12_GLOBAL__N_115LiveDebugValuesEEEPNS_4PassEv.stub
	_ZN4llvm15callDefaultCtorIN12_GLOBAL__N_115LiveRangeShrinkEEEPNS_4PassEv.stub
	_ZN4llvm15callDefaultCtorIN12_GLOBAL__N_115LoopInterchangeEEEPNS_4PassEv.stub
	_ZN4llvm15callDefaultCtorIN12_GLOBAL__N_115LowerIntrinsicsEEEPNS_4PassEv.stub
	_ZN4llvm15callDefaultCtorIN12_GLOBAL__N_115MIRPrintingPassEEEPNS_4PassEv.stub
	_ZN4llvm15callDefaultCtorIN12_GLOBAL__N_115MachineCombinerEEEPNS_4PassEv.stub
	_ZN4llvm15callDefaultCtorIN12_GLOBAL__N_115MachineOutlinerEEEPNS_4PassEv.stub
	_ZN4llvm15callDefaultCtorIN12_GLOBAL__N_115MemDerefPrinterEEEPNS_4PassEv.stub
	_ZN4llvm15callDefaultCtorIN12_GLOBAL__N_115ObjCARCContractEEEPNS_4PassEv.stub
	_ZN4llvm15callDefaultCtorIN12_GLOBAL__N_115PlaceSafepointsEEEPNS_4PassEv.stub
	_ZN4llvm15callDefaultCtorIN12_GLOBAL__N_115PostRASchedulerEEEPNS_4PassEv.stub
	_ZN4llvm15callDefaultCtorIN12_GLOBAL__N_115ShadowCallStackEEEPNS_4PassEv.stub
	_ZN4llvm15callDefaultCtorIN12_GLOBAL__N_115VirtRegRewriterEEEPNS_4PassEv.stub
	_ZN4llvm15callDefaultCtorIN12_GLOBAL__N_115X86AvoidSFBPassEEEPNS_4PassEv.stub
	_ZN4llvm15callDefaultCtorIN12_GLOBAL__N_116AddressSanitizerEEEPNS_4PassEv.stub
	_ZN4llvm15callDefaultCtorIN12_GLOBAL__N_116BranchFolderPassEEEPNS_4PassEv.stub
	_ZN4llvm15callDefaultCtorIN12_GLOBAL__N_116BranchRelaxationEEEPNS_4PassEv.stub
	_ZN4llvm15callDefaultCtorIN12_GLOBAL__N_116CFIInstrInserterEEEPNS_4PassEv.stub
	_ZN4llvm15callDefaultCtorIN12_GLOBAL__N_116EarlyIfConverterEEEPNS_4PassEv.stub
	_ZN4llvm15callDefaultCtorIN12_GLOBAL__N_116EarlyMachineLICMEEEPNS_4PassEv.stub
	_ZN4llvm15callDefaultCtorIN12_GLOBAL__N_116ExpandMemCmpPassEEEPNS_4PassEv.stub
	_ZN4llvm15callDefaultCtorIN12_GLOBAL__N_116ExpandReductionsEEEPNS_4PassEv.stub
	_ZN4llvm15callDefaultCtorIN12_GLOBAL__N_116IPSCCPLegacyPassEEEPNS_4PassEv.stub
	_ZN4llvm15callDefaultCtorIN12_GLOBAL__N_116LCSSAWrapperPassEEEPNS_4PassEv.stub
	_ZN4llvm15callDefaultCtorIN12_GLOBAL__N_116LoopUnrollAndJamEEEPNS_4PassEv.stub
	_ZN4llvm15callDefaultCtorIN12_GLOBAL__N_116MIRCanonicalizerEEEPNS_4PassEv.stub
	_ZN4llvm15callDefaultCtorIN12_GLOBAL__N_116MachineSchedulerEEEPNS_4PassEv.stub
	_ZN4llvm15callDefaultCtorIN12_GLOBAL__N_116NewGVNLegacyPassEEEPNS_4PassEv.stub
	_ZN4llvm15callDefaultCtorIN12_GLOBAL__N_116RegionOnlyViewerEEEPNS_4PassEv.stub
	_ZN4llvm15callDefaultCtorIN12_GLOBAL__N_116StackMapLivenessEEEPNS_4PassEv.stub
	_ZN4llvm15callDefaultCtorIN12_GLOBAL__N_116StripGCRelocatesEEEPNS_4PassEv.stub
	_ZN4llvm15callDefaultCtorIN12_GLOBAL__N_116WriteBitcodePassEEEPNS_4PassEv.stub
	_ZN4llvm15callDefaultCtorIN12_GLOBAL__N_117CostModelAnalysisEEEPNS_4PassEv.stub
	_ZN4llvm15callDefaultCtorIN12_GLOBAL__N_117DataFlowSanitizerEEEPNS_4PassEv.stub
	_ZN4llvm15callDefaultCtorIN12_GLOBAL__N_117EvexToVexInstPassEEEPNS_4PassEv.stub
	_ZN4llvm15callDefaultCtorIN12_GLOBAL__N_117ExpandISelPseudosEEEPNS_4PassEv.stub
	_ZN4llvm15callDefaultCtorIN12_GLOBAL__N_117GVNSinkLegacyPassEEEPNS_4PassEv.stub
	_ZN4llvm15callDefaultCtorIN12_GLOBAL__N_117InterleavedAccessEEEPNS_4PassEv.stub
	_ZN4llvm15callDefaultCtorIN12_GLOBAL__N_117PatchableFunctionEEEPNS_4PassEv.stub
	_ZN4llvm15callDefaultCtorIN12_GLOBAL__N_117PeepholeOptimizerEEEPNS_4PassEv.stub
	_ZN4llvm15callDefaultCtorIN12_GLOBAL__N_117PostDomOnlyViewerEEEPNS_4PassEv.stub
	_ZN4llvm15callDefaultCtorIN12_GLOBAL__N_117PromoteLegacyPassEEEPNS_4PassEv.stub
	_ZN4llvm15callDefaultCtorIN12_GLOBAL__N_117RegionOnlyPrinterEEEPNS_4PassEv.stub
	_ZN4llvm15callDefaultCtorIN12_GLOBAL__N_117RegisterCoalescerEEEPNS_4PassEv.stub
	_ZN4llvm15callDefaultCtorIN12_GLOBAL__N_117SinkingLegacyPassEEEPNS_4PassEv.stub
	_ZN4llvm15callDefaultCtorIN12_GLOBAL__N_117StackSlotColoringEEEPNS_4PassEv.stub
	_ZN4llvm15callDefaultCtorIN12_GLOBAL__N_117StripDebugDeclareEEEPNS_4PassEv.stub
	_ZN4llvm15callDefaultCtorIN12_GLOBAL__N_118BreakCriticalEdgesEEEPNS_4PassEv.stub
	_ZN4llvm15callDefaultCtorIN12_GLOBAL__N_118DebugifyModulePassEEEPNS_4PassEv.stub
	_ZN4llvm15callDefaultCtorIN12_GLOBAL__N_118EarlyTailDuplicateEEEPNS_4PassEv.stub
	_ZN4llvm15callDefaultCtorIN12_GLOBAL__N_118HWAddressSanitizerEEEPNS_4PassEv.stub
	_ZN4llvm15callDefaultCtorIN12_GLOBAL__N_118ImplicitNullChecksEEEPNS_4PassEv.stub
	_ZN4llvm15callDefaultCtorIN12_GLOBAL__N_118InferAddressSpacesEEEPNS_4PassEv.stub
	_ZN4llvm15callDefaultCtorIN12_GLOBAL__N_118LegacyLoopSinkPassEEEPNS_4PassEv.stub
	_ZN4llvm15callDefaultCtorIN12_GLOBAL__N_118LocalStackSlotPassEEEPNS_4PassEv.stub
	_ZN4llvm15callDefaultCtorIN12_GLOBAL__N_118LoopStrengthReduceEEEPNS_4PassEv.stub
	_ZN4llvm15callDefaultCtorIN12_GLOBAL__N_118LoopVersioningLICMEEEPNS_4PassEv.stub
	_ZN4llvm15callDefaultCtorIN12_GLOBAL__N_118LoopVersioningPassEEEPNS_4PassEv.stub
	_ZN4llvm15callDefaultCtorIN12_GLOBAL__N_118MustExecutePrinterEEEPNS_4PassEv.stub
	_ZN4llvm15callDefaultCtorIN12_GLOBAL__N_118PostDomOnlyPrinterEEEPNS_4PassEv.stub
	_ZN4llvm15callDefaultCtorIN12_GLOBAL__N_118StripDeadDebugInfoEEEPNS_4PassEv.stub
	_ZN4llvm15callDefaultCtorIN12_GLOBAL__N_118VerifierLegacyPassEEEPNS_4PassEv.stub
	_ZN4llvm15callDefaultCtorIN12_GLOBAL__N_118WholeProgramDevirtEEEPNS_4PassEv.stub
	_ZN4llvm15callDefaultCtorIN12_GLOBAL__N_119CFGViewerLegacyPassEEEPNS_4PassEv.stub
	_ZN4llvm15callDefaultCtorIN12_GLOBAL__N_119CallGraphDOTPrinterEEEPNS_4PassEv.stub
	_ZN4llvm15callDefaultCtorIN12_GLOBAL__N_119ConstantPropagationEEEPNS_4PassEv.stub
	_ZN4llvm15callDefaultCtorIN12_GLOBAL__N_119DeadInstEliminationEEEPNS_4PassEv.stub
	_ZN4llvm15callDefaultCtorIN12_GLOBAL__N_119EfficiencySanitizerEEEPNS_4PassEv.stub
	_ZN4llvm15callDefaultCtorIN12_GLOBAL__N_119Float2IntLegacyPassEEEPNS_4PassEv.stub
	_ZN4llvm15callDefaultCtorIN12_GLOBAL__N_119GlobalDCELegacyPassEEEPNS_4PassEv.stub
	_ZN4llvm15callDefaultCtorIN12_GLOBAL__N_119GlobalOptLegacyPassEEEPNS_4PassEv.stub
	_ZN4llvm15callDefaultCtorIN12_GLOBAL__N_119LoopLoadEliminationEEEPNS_4PassEv.stub
	_ZN4llvm15callDefaultCtorIN12_GLOBAL__N_119MachineVerifierPassEEEPNS_4PassEv.stub
	_ZN4llvm15callDefaultCtorIN12_GLOBAL__N_119MemCpyOptLegacyPassEEEPNS_4PassEv.stub
	_ZN4llvm15callDefaultCtorIN12_GLOBAL__N_119PrintBasicBlockPassEEEPNS_4PassEv.stub
	_ZN4llvm15callDefaultCtorIN12_GLOBAL__N_119ProcessImplicitDefsEEEPNS_4PassEv.stub
	_ZN4llvm15callDefaultCtorIN12_GLOBAL__N_119SafeStackLegacyPassEEEPNS_4PassEv.stub
	_ZN4llvm15callDefaultCtorIN12_GLOBAL__N_119SingleLoopExtractorEEEPNS_4PassEv.stub
	_ZN4llvm15callDefaultCtorIN12_GLOBAL__N_119WriteThinLTOBitcodeEEEPNS_4PassEv.stub
	_ZN4llvm15callDefaultCtorIN12_GLOBAL__N_119XRayInstrumentationEEEPNS_4PassEv.stub
	_ZN4llvm15callDefaultCtorIN12_GLOBAL__N_120CFGPrinterLegacyPassEEEPNS_4PassEv.stub
	_ZN4llvm15callDefaultCtorIN12_GLOBAL__N_120DebugifyFunctionPassEEEPNS_4PassEv.stub
	_ZN4llvm15callDefaultCtorIN12_GLOBAL__N_120IndirectBrExpandPassEEEPNS_4PassEv.stub
	_ZN4llvm15callDefaultCtorIN12_GLOBAL__N_120LazyValueInfoPrinterEEEPNS_4PassEv.stub
	_ZN4llvm15callDefaultCtorIN12_GLOBAL__N_120LoopDistributeLegacyEEEPNS_4PassEv.stub
	_ZN4llvm15callDefaultCtorIN12_GLOBAL__N_120LoopRotateLegacyPassEEEPNS_4PassEv.stub
	_ZN4llvm15callDefaultCtorIN12_GLOBAL__N_120LowerExpectIntrinsicEEEPNS_4PassEv.stub
	_ZN4llvm15callDefaultCtorIN12_GLOBAL__N_120PostMachineSchedulerEEEPNS_4PassEv.stub
	_ZN4llvm15callDefaultCtorIN12_GLOBAL__N_120PostRAMachineSinkingEEEPNS_4PassEv.stub
	_ZN4llvm15callDefaultCtorIN12_GLOBAL__N_120ResetMachineFunctionEEEPNS_4PassEv.stub
	_ZN4llvm15callDefaultCtorIN12_GLOBAL__N_120ScalarizerLegacyPassEEEPNS_4PassEv.stub
	_ZN4llvm15callDefaultCtorIN12_GLOBAL__N_120StripNonDebugSymbolsEEEPNS_4PassEv.stub
	_ZN4llvm15callDefaultCtorIN12_GLOBAL__N_120UnpackMachineBundlesEEEPNS_4PassEv.stub
	_ZN4llvm15callDefaultCtorIN12_GLOBAL__N_120X86CmovConverterPassEEEPNS_4PassEv.stub
	_ZN4llvm15callDefaultCtorIN12_GLOBAL__N_120X86CondBrFoldingPassEEEPNS_4PassEv.stub
	_ZN4llvm15callDefaultCtorIN12_GLOBAL__N_121DivRemPairsLegacyPassEEEPNS_4PassEv.stub
	_ZN4llvm15callDefaultCtorIN12_GLOBAL__N_121EntryExitInstrumenterEEEPNS_4PassEv.stub
	_ZN4llvm15callDefaultCtorIN12_GLOBAL__N_121GCMachineCodeAnalysisEEEPNS_4PassEv.stub
	_ZN4llvm15callDefaultCtorIN12_GLOBAL__N_121InternalizeLegacyPassEEEPNS_4PassEv.stub
	_ZN4llvm15callDefaultCtorIN12_GLOBAL__N_121LowerAtomicLegacyPassEEEPNS_4PassEv.stub
	_ZN4llvm15callDefaultCtorIN12_GLOBAL__N_121LowerInvokeLegacyPassEEEPNS_4PassEv.stub
	_ZN4llvm15callDefaultCtorIN12_GLOBAL__N_121MachineBlockPlacementEEEPNS_4PassEv.stub
	_ZN4llvm15callDefaultCtorIN12_GLOBAL__N_121ReassociateLegacyPassEEEPNS_4PassEv.stub
	_ZN4llvm15callDefaultCtorIN12_GLOBAL__N_121RegUsageInfoCollectorEEEPNS_4PassEv.stub
	_ZN4llvm15callDefaultCtorIN12_GLOBAL__N_121ShadowStackGCLoweringEEEPNS_4PassEv.stub
	_ZN4llvm15callDefaultCtorIN12_GLOBAL__N_121X86DomainReassignmentEEEPNS_4PassEv.stub
	_ZN4llvm15callDefaultCtorIN12_GLOBAL__N_121X86ExecutionDomainFixEEEPNS_4PassEv.stub
	_ZN4llvm15callDefaultCtorIN12_GLOBAL__N_122AddressSanitizerModuleEEEPNS_4PassEv.stub
	_ZN4llvm15callDefaultCtorIN12_GLOBAL__N_122FinalizeMachineBundlesEEEPNS_4PassEv.stub
	_ZN4llvm15callDefaultCtorIN12_GLOBAL__N_122GCOVProfilerLegacyPassEEEPNS_4PassEv.stub
	_ZN4llvm15callDefaultCtorIN12_GLOBAL__N_122InstSimplifyLegacyPassEEEPNS_4PassEv.stub
	_ZN4llvm15callDefaultCtorIN12_GLOBAL__N_122InterleavedLoadCombineEEEPNS_4PassEv.stub
	_ZN4llvm15callDefaultCtorIN12_GLOBAL__N_122LoopDeletionLegacyPassEEEPNS_4PassEv.stub
	_ZN4llvm15callDefaultCtorIN12_GLOBAL__N_122MachineCopyPropagationEEEPNS_4PassEv.stub
	_ZN4llvm15callDefaultCtorIN12_GLOBAL__N_122ModuleDebugInfoPrinterEEEPNS_4PassEv.stub
	_ZN4llvm15callDefaultCtorIN12_GLOBAL__N_122PostRAHazardRecognizerEEEPNS_4PassEv.stub
	_ZN4llvm15callDefaultCtorIN12_GLOBAL__N_122PrintModulePassWrapperEEEPNS_4PassEv.stub
	_ZN4llvm15callDefaultCtorIN12_GLOBAL__N_123AlwaysInlinerLegacyPassEEEPNS_4PassEv.stub
	_ZN4llvm15callDefaultCtorIN12_GLOBAL__N_123CFGOnlyViewerLegacyPassEEEPNS_4PassEv.stub
	_ZN4llvm15callDefaultCtorIN12_GLOBAL__N_123CheckDebugifyModulePassEEEPNS_4PassEv.stub
	_ZN4llvm15callDefaultCtorIN12_GLOBAL__N_123ConstantMergeLegacyPassEEEPNS_4PassEv.stub
	_ZN4llvm15callDefaultCtorIN12_GLOBAL__N_123GuardWideningLegacyPassEEEPNS_4PassEv.stub
	_ZN4llvm15callDefaultCtorIN12_GLOBAL__N_123RegUsageInfoPropagationEEEPNS_4PassEv.stub
	_ZN4llvm15callDefaultCtorIN12_GLOBAL__N_123SanitizerCoverageModuleEEEPNS_4PassEv.stub
	_ZN4llvm15callDefaultCtorIN12_GLOBAL__N_124AlignmentFromAssumptionsEEEPNS_4PassEv.stub
	_ZN4llvm15callDefaultCtorIN12_GLOBAL__N_124BoundsCheckingLegacyPassEEEPNS_4PassEv.stub
	_ZN4llvm15callDefaultCtorIN12_GLOBAL__N_124CFGOnlyPrinterLegacyPassEEEPNS_4PassEv.stub
	_ZN4llvm15callDefaultCtorIN12_GLOBAL__N_124EarlyCSELegacyCommonPassILb0EEEEEPNS_4PassEv.stub
	_ZN4llvm15callDefaultCtorIN12_GLOBAL__N_124EarlyCSELegacyCommonPassILb1EEEEEPNS_4PassEv.stub
	_ZN4llvm15callDefaultCtorIN12_GLOBAL__N_124FunctionImportLegacyPassEEEPNS_4PassEv.stub
	_ZN4llvm15callDefaultCtorIN12_GLOBAL__N_124IndVarSimplifyLegacyPassEEEPNS_4PassEv.stub
	_ZN4llvm15callDefaultCtorIN12_GLOBAL__N_124InstrProfilingLegacyPassEEEPNS_4PassEv.stub
	_ZN4llvm15callDefaultCtorIN12_GLOBAL__N_124NameAnonGlobalLegacyPassEEEPNS_4PassEv.stub
	_ZN4llvm15callDefaultCtorIN12_GLOBAL__N_124PartialInlinerLegacyPassEEEPNS_4PassEv.stub
	_ZN4llvm15callDefaultCtorIN12_GLOBAL__N_124PrintFunctionPassWrapperEEEPNS_4PassEv.stub
	_ZN4llvm15callDefaultCtorIN12_GLOBAL__N_124RenameIndependentSubregsEEEPNS_4PassEv.stub
	_ZN4llvm15callDefaultCtorIN12_GLOBAL__N_124RewriteSymbolsLegacyPassEEEPNS_4PassEv.stub
	_ZN4llvm15callDefaultCtorIN12_GLOBAL__N_124ScalarizeMaskedMemIntrinEEEPNS_4PassEv.stub
	_ZN4llvm15callDefaultCtorIN12_GLOBAL__N_124X86CallFrameOptimizationEEEPNS_4PassEv.stub
	_ZN4llvm15callDefaultCtorIN12_GLOBAL__N_124X86FlagsCopyLoweringPassEEEPNS_4PassEv.stub
	_ZN4llvm15callDefaultCtorIN12_GLOBAL__N_125CheckDebugifyFunctionPassEEEPNS_4PassEv.stub
	_ZN4llvm15callDefaultCtorIN12_GLOBAL__N_125LoopPredicationLegacyPassEEEPNS_4PassEv.stub
	_ZN4llvm15callDefaultCtorIN12_GLOBAL__N_125LoopSimplifyCFGLegacyPassEEEPNS_4PassEv.stub
	_ZN4llvm15callDefaultCtorIN12_GLOBAL__N_125MemorySanitizerLegacyPassEEEPNS_4PassEv.stub
	_ZN4llvm15callDefaultCtorIN12_GLOBAL__N_125NaryReassociateLegacyPassEEEPNS_4PassEv.stub
	_ZN4llvm15callDefaultCtorIN12_GLOBAL__N_125PGOMemOPSizeOptLegacyPassEEEPNS_4PassEv.stub
	_ZN4llvm15callDefaultCtorIN12_GLOBAL__N_125ThreadSanitizerLegacyPassEEEPNS_4PassEv.stub
	_ZN4llvm15callDefaultCtorIN12_GLOBAL__N_125TwoAddressInstructionPassEEEPNS_4PassEv.stub
	_ZN4llvm15callDefaultCtorIN12_GLOBAL__N_126CallGraphPrinterLegacyPassEEEPNS_4PassEv.stub
	_ZN4llvm15callDefaultCtorIN12_GLOBAL__N_126ConstantHoistingLegacyPassEEEPNS_4PassEv.stub
	_ZN4llvm15callDefaultCtorIN12_GLOBAL__N_126CorrelatedValuePropagationEEEPNS_4PassEv.stub
	_ZN4llvm15callDefaultCtorIN12_GLOBAL__N_126DeadMachineInstructionElimEEEPNS_4PassEv.stub
	_ZN4llvm15callDefaultCtorIN12_GLOBAL__N_126HotColdSplittingLegacyPassEEEPNS_4PassEv.stub
	_ZN4llvm15callDefaultCtorIN12_GLOBAL__N_126LoopDataPrefetchLegacyPassEEEPNS_4PassEv.stub
	_ZN4llvm15callDefaultCtorIN12_GLOBAL__N_126LoopInstSimplifyLegacyPassEEEPNS_4PassEv.stub
	_ZN4llvm15callDefaultCtorIN12_GLOBAL__N_126MachineBlockPlacementStatsEEEPNS_4PassEv.stub
	_ZN4llvm15callDefaultCtorIN12_GLOBAL__N_126MachineFunctionPrinterPassEEEPNS_4PassEv.stub
	_ZN4llvm15callDefaultCtorIN12_GLOBAL__N_126SeparateConstOffsetFromGEPEEEPNS_4PassEv.stub
	_ZN4llvm15callDefaultCtorIN12_GLOBAL__N_126StraightLineStrengthReduceEEEPNS_4PassEv.stub
	_ZN4llvm15callDefaultCtorIN12_GLOBAL__N_126StripNonLineTableDebugInfoEEEPNS_4PassEv.stub
	_ZN4llvm15callDefaultCtorIN12_GLOBAL__N_127AddDiscriminatorsLegacyPassEEEPNS_4PassEv.stub
	_ZN4llvm15callDefaultCtorIN12_GLOBAL__N_127CallSiteSplittingLegacyPassEEEPNS_4PassEv.stub
	_ZN4llvm15callDefaultCtorIN12_GLOBAL__N_127LoopGuardWideningLegacyPassEEEPNS_4PassEv.stub
	_ZN4llvm15callDefaultCtorIN12_GLOBAL__N_127PlaceBackedgeSafepointsImplEEEPNS_4PassEv.stub
	_ZN4llvm15callDefaultCtorIN12_GLOBAL__N_127UnreachableMachineBlockElimEEEPNS_4PassEv.stub
	_ZN4llvm15callDefaultCtorIN12_GLOBAL__N_128ForceFunctionAttrsLegacyPassEEEPNS_4PassEv.stub
	_ZN4llvm15callDefaultCtorIN12_GLOBAL__N_128InferFunctionAttrsLegacyPassEEEPNS_4PassEv.stub
	_ZN4llvm15callDefaultCtorIN12_GLOBAL__N_128LibCallsShrinkWrapLegacyPassEEEPNS_4PassEv.stub
	_ZN4llvm15callDefaultCtorIN12_GLOBAL__N_128LoopIdiomRecognizeLegacyPassEEEPNS_4PassEv.stub
	_ZN4llvm15callDefaultCtorIN12_GLOBAL__N_128MakeGuardsExplicitLegacyPassEEEPNS_4PassEv.stub
	_ZN4llvm15callDefaultCtorIN12_GLOBAL__N_128SimpleLoopUnswitchLegacyPassEEEPNS_4PassEv.stub
	_ZN4llvm15callDefaultCtorIN12_GLOBAL__N_129CanonicalizeAliasesLegacyPassEEEPNS_4PassEv.stub
	_ZN4llvm15callDefaultCtorIN12_GLOBAL__N_129LoadStoreVectorizerLegacyPassEEEPNS_4PassEv.stub
	_ZN4llvm15callDefaultCtorIN12_GLOBAL__N_129LowerGuardIntrinsicLegacyPassEEEPNS_4PassEv.stub
	_ZN4llvm15callDefaultCtorIN12_GLOBAL__N_129SampleProfileLoaderLegacyPassEEEPNS_4PassEv.stub
	_ZN4llvm15callDefaultCtorIN12_GLOBAL__N_129StripDeadPrototypesLegacyPassEEEPNS_4PassEv.stub
	_ZN4llvm15callDefaultCtorIN12_GLOBAL__N_130SpeculativeExecutionLegacyPassEEEPNS_4PassEv.stub
	_ZN4llvm15callDefaultCtorIN12_GLOBAL__N_130UnreachableBlockElimLegacyPassEEEPNS_4PassEv.stub
	_ZN4llvm15callDefaultCtorIN12_GLOBAL__N_131MergedLoadStoreMotionLegacyPassEEEPNS_4PassEv.stub
	_ZN4llvm15callDefaultCtorIN12_GLOBAL__N_131PGOInstrumentationGenLegacyPassEEEPNS_4PassEv.stub
	_ZN4llvm15callDefaultCtorIN12_GLOBAL__N_131PGOInstrumentationUseLegacyPassEEEPNS_4PassEv.stub
	_ZN4llvm15callDefaultCtorIN12_GLOBAL__N_131PostInlineEntryExitInstrumenterEEEPNS_4PassEv.stub
	_ZN4llvm15callDefaultCtorIN12_GLOBAL__N_131WarnMissedTransformationsLegacyEEEPNS_4PassEv.stub
	_ZN4llvm15callDefaultCtorIN12_GLOBAL__N_131X86SpeculativeLoadHardeningPassEEEPNS_4PassEv.stub
	_ZN4llvm15callDefaultCtorIN12_GLOBAL__N_132AggressiveInstCombinerLegacyPassEEEPNS_4PassEv.stub
	_ZN4llvm15callDefaultCtorIN12_GLOBAL__N_132CalledValuePropagationLegacyPassEEEPNS_4PassEv.stub
	_ZN4llvm15callDefaultCtorIN12_GLOBAL__N_132ControlHeightReductionLegacyPassEEEPNS_4PassEv.stub
	_ZN4llvm15callDefaultCtorIN12_GLOBAL__N_132PostOrderFunctionAttrsLegacyPassEEEPNS_4PassEv.stub
	_ZN4llvm15callDefaultCtorIN12_GLOBAL__N_133PartiallyInlineLibCallsLegacyPassEEEPNS_4PassEv.stub
	_ZN4llvm15callDefaultCtorIN12_GLOBAL__N_133RewriteStatepointsForGCLegacyPassEEEPNS_4PassEv.stub
	_ZN4llvm15callDefaultCtorIN12_GLOBAL__N_134PGOIndirectCallPromotionLegacyPassEEEPNS_4PassEv.stub
	_ZN4llvm15callDefaultCtorIN12_GLOBAL__N_134PreISelIntrinsicLoweringLegacyPassEEEPNS_4PassEv.stub
	_ZN4llvm15callDefaultCtorIN12_GLOBAL__N_138EliminateAvailableExternallyLegacyPassEEEPNS_4PassEv.stub
	_ZN4llvm15callDefaultCtorIN12_GLOBAL__N_139ReversePostOrderFunctionAttrsLegacyPassEEEPNS_4PassEv.stub
	_ZN4llvm15callDefaultCtorIN12_GLOBAL__N_13DAEEEEPNS_4PassEv.stub
	_ZN4llvm15callDefaultCtorIN12_GLOBAL__N_13DAHEEEPNS_4PassEv.stub
	_ZN4llvm15callDefaultCtorIN12_GLOBAL__N_13PEIEEEPNS_4PassEv.stub
	_ZN4llvm15callDefaultCtorIN12_GLOBAL__N_14IPCPEEEPNS_4PassEv.stub
	_ZN4llvm15callDefaultCtorIN12_GLOBAL__N_14LintEEEPNS_4PassEv.stub
	_ZN4llvm15callDefaultCtorIN12_GLOBAL__N_16CFGSCCEEEPNS_4PassEv.stub
	_ZN4llvm15callDefaultCtorIN12_GLOBAL__N_16PAEvalEEEPNS_4PassEv.stub
	_ZN4llvm15callDefaultCtorIN12_GLOBAL__N_17PruneEHEEEPNS_4PassEv.stub
	_ZN4llvm15callDefaultCtorIN12_GLOBAL__N_17RABasicEEEPNS_4PassEv.stub
	_ZN4llvm15callDefaultCtorIN12_GLOBAL__N_18RAGreedyEEEPNS_4PassEv.stub
	_ZN4llvm15callDefaultCtorIN12_GLOBAL__N_18RegToMemEEEPNS_4PassEv.stub
	_ZN4llvm15callDefaultCtorIN12_GLOBAL__N_19CoroEarlyEEEPNS_4PassEv.stub
	_ZN4llvm15callDefaultCtorIN12_GLOBAL__N_19CoroElideEEEPNS_4PassEv.stub
	_ZN4llvm15callDefaultCtorIN12_GLOBAL__N_19CoroSplitEEEPNS_4PassEv.stub
	_ZN4llvm15callDefaultCtorIN12_GLOBAL__N_19DomViewerEEEPNS_4PassEv.stub
	_ZN4llvm15callDefaultCtorIN12_GLOBAL__N_19InstCountEEEPNS_4PassEv.stub
	_ZN4llvm15callDefaultCtorIN12_GLOBAL__N_19InstNamerEEEPNS_4PassEv.stub
	_ZN4llvm15callDefaultCtorINS_10LiveStacksEEEPNS_4PassEv.stub
	_ZN4llvm15callDefaultCtorINS_10VirtRegMapEEEPNS_4PassEv.stub
	_ZN4llvm15callDefaultCtorINS_11EdgeBundlesEEEPNS_4PassEv.stub
	_ZN4llvm15callDefaultCtorINS_11SlotIndexesEEEPNS_4PassEv.stub
	_ZN4llvm15callDefaultCtorINS_12GCModuleInfoEEEPNS_4PassEv.stub
	_ZN4llvm15callDefaultCtorINS_12IRTranslatorEEEPNS_4PassEv.stub
	_ZN4llvm15callDefaultCtorINS_13LiveIntervalsEEEPNS_4PassEv.stub
	_ZN4llvm15callDefaultCtorINS_13LiveRegMatrixEEEPNS_4PassEv.stub
	_ZN4llvm15callDefaultCtorINS_13LiveVariablesEEEPNS_4PassEv.stub
	_ZN4llvm15callDefaultCtorINS_13RegBankSelectEEEPNS_4PassEv.stub
	_ZN4llvm15callDefaultCtorINS_14BreakFalseDepsEEEPNS_4PassEv.stub
	_ZN4llvm15callDefaultCtorINS_14DummyCGSCCPassEEEPNS_4PassEv.stub
	_ZN4llvm15callDefaultCtorINS_14RegionInfoPassEEEPNS_4PassEv.stub
	_ZN4llvm15callDefaultCtorINS_14SpillPlacementEEEPNS_4PassEv.stub
	_ZN4llvm15callDefaultCtorINS_14StackProtectorEEEPNS_4PassEv.stub
	_ZN4llvm15callDefaultCtorINS_15MachineLoopInfoEEEPNS_4PassEv.stub
	_ZN4llvm15callDefaultCtorINS_16AAEvalLegacyPassEEEPNS_4PassEv.stub
	_ZN4llvm15callDefaultCtorINS_16MachinePipelinerEEEPNS_4PassEv.stub
	_ZN4llvm15callDefaultCtorINS_16TargetPassConfigEEEPNS_4PassEv.stub
	_ZN4llvm15callDefaultCtorINS_17InstructionSelectEEEPNS_4PassEv.stub
	_ZN4llvm15callDefaultCtorINS_17IntervalPartitionEEEPNS_4PassEv.stub
	_ZN4llvm15callDefaultCtorINS_17MachineModuleInfoEEEPNS_4PassEv.stub
	_ZN4llvm15callDefaultCtorINS_17SCEVAAWrapperPassEEEPNS_4PassEv.stub
	_ZN4llvm15callDefaultCtorINS_18BasicAAWrapperPassEEEPNS_4PassEv.stub
	_ZN4llvm15callDefaultCtorINS_18GVNHoistLegacyPassEEEPNS_4PassEv.stub
	_ZN4llvm15callDefaultCtorINS_18IVUsersWrapperPassEEEPNS_4PassEv.stub
	_ZN4llvm15callDefaultCtorINS_18LiveDebugVariablesEEEPNS_4PassEv.stub
	_ZN4llvm15callDefaultCtorINS_19LoopInfoWrapperPassEEEPNS_4PassEv.stub
	_ZN4llvm15callDefaultCtorINS_19MachineTraceMetricsEEEPNS_4PassEv.stub
	_ZN4llvm15callDefaultCtorINS_19ReachingDefAnalysisEEEPNS_4PassEv.stub
	_ZN4llvm15callDefaultCtorINS_20AAResultsWrapperPassEEEPNS_4PassEv.stub
	_ZN4llvm15callDefaultCtorINS_20CallGraphWrapperPassEEEPNS_4PassEv.stub
	_ZN4llvm15callDefaultCtorINS_20GlobalsAAWrapperPassEEEPNS_4PassEv.stub
	_ZN4llvm15callDefaultCtorINS_20MachineDominatorTreeEEEPNS_4PassEv.stub
	_ZN4llvm15callDefaultCtorINS_20MemorySSAWrapperPassEEEPNS_4PassEv.stub
	_ZN4llvm15callDefaultCtorINS_20PhiValuesWrapperPassEEEPNS_4PassEv.stub
	_ZN4llvm15callDefaultCtorINS_21ExternalAAWrapperPassEEEPNS_4PassEv.stub
	_ZN4llvm15callDefaultCtorINS_21LCSSAVerificationPassEEEPNS_4PassEv.stub
	_ZN4llvm15callDefaultCtorINS_21MachineRegionInfoPassEEEPNS_4PassEv.stub
	_ZN4llvm15callDefaultCtorINS_22AssumptionCacheTrackerEEEPNS_4PassEv.stub
	_ZN4llvm15callDefaultCtorINS_22CFLAndersAAWrapperPassEEEPNS_4PassEv.stub
	_ZN4llvm15callDefaultCtorINS_22CFLSteensAAWrapperPassEEEPNS_4PassEv.stub
	_ZN4llvm15callDefaultCtorINS_22TypeBasedAAWrapperPassEEEPNS_4PassEv.stub
	_ZN4llvm15callDefaultCtorINS_22UnifyFunctionExitNodesEEEPNS_4PassEv.stub
	_ZN4llvm15callDefaultCtorINS_23DemandedBitsWrapperPassEEEPNS_4PassEv.stub
	_ZN4llvm15callDefaultCtorINS_24DominatorTreeWrapperPassEEEPNS_4PassEv.stub
	_ZN4llvm15callDefaultCtorINS_24InstructionCombiningPassEEEPNS_4PassEv.stub
	_ZN4llvm15callDefaultCtorINS_24LazyValueInfoWrapperPassEEEPNS_4PassEv.stub
	_ZN4llvm15callDefaultCtorINS_24LegacyDivergenceAnalysisEEEPNS_4PassEv.stub
	_ZN4llvm15callDefaultCtorINS_24LoopAccessLegacyAnalysisEEEPNS_4PassEv.stub
	_ZN4llvm15callDefaultCtorINS_24MachineDominanceFrontierEEEPNS_4PassEv.stub
	_ZN4llvm15callDefaultCtorINS_24MachinePostDominatorTreeEEEPNS_4PassEv.stub
	_ZN4llvm15callDefaultCtorINS_25MachineBlockFrequencyInfoEEEPNS_4PassEv.stub
	_ZN4llvm15callDefaultCtorINS_25PhysicalRegisterUsageInfoEEEPNS_4PassEv.stub
	_ZN4llvm15callDefaultCtorINS_26LazyBlockFrequencyInfoPassEEEPNS_4PassEv.stub
	_ZN4llvm15callDefaultCtorINS_26MemorySSAPrinterLegacyPassEEEPNS_4PassEv.stub
	_ZN4llvm15callDefaultCtorINS_26ScalarEvolutionWrapperPassEEEPNS_4PassEv.stub
	_ZN4llvm15callDefaultCtorINS_26ScopedNoAliasAAWrapperPassEEEPNS_4PassEv.stub
	_ZN4llvm15callDefaultCtorINS_26StackSafetyInfoWrapperPassEEEPNS_4PassEv.stub
	_ZN4llvm15callDefaultCtorINS_27GISelCSEAnalysisWrapperPassEEEPNS_4PassEv.stub
	_ZN4llvm15callDefaultCtorINS_27MemoryDependenceWrapperPassEEEPNS_4PassEv.stub
	_ZN4llvm15callDefaultCtorINS_28DominanceFrontierWrapperPassEEEPNS_4PassEv.stub
	_ZN4llvm15callDefaultCtorINS_28MachineBranchProbabilityInfoEEEPNS_4PassEv.stub
	_ZN4llvm15callDefaultCtorINS_28PostDominatorTreeWrapperPassEEEPNS_4PassEv.stub
	_ZN4llvm15callDefaultCtorINS_28TargetLibraryInfoWrapperPassEEEPNS_4PassEv.stub
	_ZN4llvm15callDefaultCtorINS_29BlockFrequencyInfoWrapperPassEEEPNS_4PassEv.stub
	_ZN4llvm15callDefaultCtorINS_29DependenceAnalysisWrapperPassEEEPNS_4PassEv.stub
	_ZN4llvm15callDefaultCtorINS_29LazyBranchProbabilityInfoPassEEEPNS_4PassEv.stub
	_ZN4llvm15callDefaultCtorINS_29ModuleSummaryIndexWrapperPassEEEPNS_4PassEv.stub
	_ZN4llvm15callDefaultCtorINS_29ProfileSummaryInfoWrapperPassEEEPNS_4PassEv.stub
	_ZN4llvm15callDefaultCtorINS_30PredicateInfoPrinterLegacyPassEEEPNS_4PassEv.stub
	_ZN4llvm15callDefaultCtorINS_30TargetTransformInfoWrapperPassEEEPNS_4PassEv.stub
	_ZN4llvm15callDefaultCtorINS_32BranchProbabilityInfoWrapperPassEEEPNS_4PassEv.stub
	_ZN4llvm15callDefaultCtorINS_32StackSafetyGlobalInfoWrapperPassEEEPNS_4PassEv.stub
	_ZN4llvm15callDefaultCtorINS_33LazyMachineBlockFrequencyInfoPassEEEPNS_4PassEv.stub
	_ZN4llvm15callDefaultCtorINS_36MachineOptimizationRemarkEmitterPassEEEPNS_4PassEv.stub
	_ZN4llvm15callDefaultCtorINS_36OptimizationRemarkEmitterWrapperPassEEEPNS_4PassEv.stub
	_ZN4llvm15callDefaultCtorINS_3gvn13GVNLegacyPassEEEPNS_4PassEv.stub
	_ZN4llvm15callDefaultCtorINS_4sroa14SROALegacyPassEEEPNS_4PassEv.stub
	_ZN4llvm15callDefaultCtorINS_7objcarc20ObjCARCAAWrapperPassEEEPNS_4PassEv.stub
	_ZN4llvm15callDefaultCtorINS_9LegalizerEEEPNS_4PassEv.stub
	_ZN4llvm15callDefaultCtorINS_9LocalizerEEEPNS_4PassEv.stub
	_ZN4llvm16DIImportedEntity7getImplERNS_11LLVMContextEjPNS_7DIScopeENS_14TypedDINodeRefINS_6DINodeEEEPNS_6DIFileEjNS_9StringRefENS_8Metadata11StorageTypeEb.stub
	_ZN4llvm16TargetPassConfig29createTargetRegisterAllocatorEb.stub
	_ZN4llvm18RegisterAsmPrinterINS_13X86AsmPrinterEE9AllocatorERNS_13TargetMachineEOSt10unique_ptrINS_10MCStreamerESt14default_deleteIS6_EE.stub
	_ZN4llvm19RegisterMCAsmParserIN12_GLOBAL__N_112X86AsmParserEE9AllocatorERKNS_15MCSubtargetInfoERNS_11MCAsmParserERKNS_11MCInstrInfoERKNS_15MCTargetOptionsE.stub
	_ZN4llvm21RegisterTargetMachineINS_16X86TargetMachineEE9AllocatorERKNS_6TargetERKNS_6TripleENS_9StringRefES9_RKNS_13TargetOptionsENS_8OptionalINS_5Reloc5ModelEEENSD_INS_9CodeModel5ModelEEENS_10CodeGenOpt5LevelEb.stub
	_ZN4llvm21formatted_raw_ostream10resetColorEv.stub
	_ZN4llvm21formatted_raw_ostream11changeColorENS_11raw_ostream6ColorsEbb.stub
	_ZN4llvm21formatted_raw_ostream12reverseColorEv.stub
	_ZN4llvm22createX86MCCodeEmitterERKNS_11MCInstrInfoERKNS_14MCRegisterInfoERNS_9MCContextE.stub
	_ZN4llvm22createX86_32AsmBackendERKNS_6TargetERKNS_15MCSubtargetInfoERKNS_14MCRegisterInfoERKNS_15MCTargetOptionsE.stub
	_ZN4llvm22createX86_64AsmBackendERKNS_6TargetERKNS_15MCSubtargetInfoERKNS_14MCRegisterInfoERKNS_15MCTargetOptionsE.stub
	_ZN4llvm24createX86WinCOFFStreamerERNS_9MCContextEOSt10unique_ptrINS_12MCAsmBackendESt14default_deleteIS3_EEOS2_INS_14MCObjectWriterES4_IS8_EEOS2_INS_13MCCodeEmitterES4_ISC_EEbb.stub
	_ZN4llvm26createX86AsmTargetStreamerERNS_10MCStreamerERNS_21formatted_raw_ostreamEPNS_13MCInstPrinterEb.stub
	_ZN4llvm27DiagnosticPrinterRawOStreamlsENS_9StringRefE.stub
	_ZN4llvm27DiagnosticPrinterRawOStreamlsEPKc.stub
	_ZN4llvm27DiagnosticPrinterRawOStreamlsEPKv.stub
	_ZN4llvm27DiagnosticPrinterRawOStreamlsERKNS_12SMDiagnosticE.stub
	_ZN4llvm27DiagnosticPrinterRawOStreamlsERKNS_5TwineE.stub
	_ZN4llvm27DiagnosticPrinterRawOStreamlsERKNS_5ValueE.stub
	_ZN4llvm27DiagnosticPrinterRawOStreamlsERKNS_6ModuleE.stub
	_ZN4llvm27DiagnosticPrinterRawOStreamlsERKNSt7__cxx1112basic_stringIcSt11char_traitsIcESaIcEEE.stub
	_ZN4llvm27DiagnosticPrinterRawOStreamlsEa.stub
	_ZN4llvm27DiagnosticPrinterRawOStreamlsEc.stub
	_ZN4llvm27DiagnosticPrinterRawOStreamlsEd.stub
	_ZN4llvm27DiagnosticPrinterRawOStreamlsEh.stub
	_ZN4llvm27DiagnosticPrinterRawOStreamlsEi.stub
	_ZN4llvm27DiagnosticPrinterRawOStreamlsEj.stub
	_ZN4llvm27DiagnosticPrinterRawOStreamlsEl.stub
	_ZN4llvm27DiagnosticPrinterRawOStreamlsEm.stub
	_ZN4llvm27DiagnosticPrinterRawOStreamlsEx.stub
	_ZN4llvm27DiagnosticPrinterRawOStreamlsEy.stub
	_ZN4llvm29createX86ObjectTargetStreamerERNS_10MCStreamerERKNS_15MCSubtargetInfoE.stub
	_ZN4llvm4Pass18getAsImmutablePassEv.stub
	_ZN4llvm4Pass18getAsPMDataManagerEv.stub
	_ZN4llvm4Pass26getAdjustedAnalysisPointerEPKv.stub
	_ZN4llvm4yaml7Scanner12skip_nb_charEPKc.stub
	_ZN4llvm4yaml7Scanner12skip_ns_charEPKc.stub
	_ZN4llvm4yaml7Scanner12skip_s_spaceEPKc.stub
	_ZN4llvm4yaml7Scanner12skip_s_whiteEPKc.stub
	_ZN4llvm6X86_MC24createX86MCSubtargetInfoERKNS_6TripleENS_9StringRefES4_.stub
	_ZN4llvm6legacy15PassManagerImpl18getAsPMDataManagerEv.stub
	_ZN4llvm6legacy15PassManagerImpl9getAsPassEv.stub
	_ZN4llvm6legacy23FunctionPassManagerImpl18getAsPMDataManagerEv.stub
	_ZN4llvm6legacy23FunctionPassManagerImpl9getAsPassEv.stub
	_ZN4llvm7DIMacro7getImplERNS_11LLVMContextEjjNS_9StringRefES3_NS_8Metadata11StorageTypeEb.stub
	_ZN4llvm8DIModule7getImplERNS_11LLVMContextEPNS_7DIScopeENS_9StringRefES5_S5_S5_NS_8Metadata11StorageTypeEb.stub
	_ZN9__gnu_cxx13new_allocatorIN4llvm10TimerGroup11PrintRecordEE8allocateEmPKv
	_ZN9__gnu_cxx13new_allocatorIN4llvm11AssertingVHINS1_11InstructionEEEE8allocateEmPKv
	_ZN9__gnu_cxx13new_allocatorIN4llvm13AttributeListEE8allocateEmPKv
	_ZN9__gnu_cxx13new_allocatorIN4llvm13BitcodeModuleEE8allocateEmPKv
	_ZN9__gnu_cxx13new_allocatorIN4llvm14WeakTrackingVHEE8allocateEmPKv
	_ZN9__gnu_cxx13new_allocatorIN4llvm15ReplacementItemEE8allocateEmPKv
	_ZN9__gnu_cxx13new_allocatorIN4llvm15SpecialCaseList7SectionEE8allocateEmPKv
	_ZN9__gnu_cxx13new_allocatorIN4llvm17OperandBundleDefTIPNS1_5ValueEEEE8allocateEmPKv
	_ZN9__gnu_cxx13new_allocatorIN4llvm18BitstreamBlockInfo9BlockInfoEE8allocateEmPKv
	_ZN9__gnu_cxx13new_allocatorIN4llvm23X86MemoryFoldTableEntryEE8allocateEmPKv
	_ZN9__gnu_cxx13new_allocatorIN4llvm28DistinctMDOperandPlaceholderEE8allocateEmPKv
	_ZN9__gnu_cxx13new_allocatorIN4llvm3EVTEE8allocateEmPKv
	_ZN9__gnu_cxx13new_allocatorIN4llvm7VecDescEE8allocateEmPKv
	_ZN9__gnu_cxx13new_allocatorIN4llvm8ArgumentEE8allocateEmPKv
	_ZN9__gnu_cxx13new_allocatorIN4llvm9SourceMgr9SrcBufferEE8allocateEmPKv
	_ZN9__gnu_cxx13new_allocatorIN4llvm9StringRefEE8allocateEmPKv
	_ZN9__gnu_cxx13new_allocatorINSt7__cxx1112basic_stringIcSt11char_traitsIcESaIcEEEE8allocateEmPKv
	_ZN9__gnu_cxx13new_allocatorINSt8__detail10_Hash_nodeISt4pairIKjN4llvm11SmallVectorImLj4EEEELb0EEEE8allocateEmPKv
	_ZN9__gnu_cxx13new_allocatorIPKN4llvm6ComdatEE8allocateEmPKv
	_ZN9__gnu_cxx13new_allocatorIPKcE8allocateEmPKv
	_ZN9__gnu_cxx13new_allocatorIPN4llvm10BasicBlockEE8allocateEmPKv
	_ZN9__gnu_cxx13new_allocatorIPN4llvm10StructTypeEE8allocateEmPKv
	_ZN9__gnu_cxx13new_allocatorIPN4llvm11AssertingVHINS1_11InstructionEEEE8allocateEmPKv
	_ZN9__gnu_cxx13new_allocatorIPN4llvm13PMDataManagerEE8allocateEmPKv
	_ZN9__gnu_cxx13new_allocatorIPN4llvm15DomTreeNodeBaseINS1_10BasicBlockEEEE8allocateEmPKv
	_ZN9__gnu_cxx13new_allocatorIPN4llvm28DistinctMDOperandPlaceholderEE8allocateEmPKv
	_ZN9__gnu_cxx13new_allocatorIPN4llvm4TypeEE8allocateEmPKv
	_ZN9__gnu_cxx13new_allocatorIPN4llvm5ValueEE8allocateEmPKv
	_ZN9__gnu_cxx13new_allocatorIPN4llvm6ComdatEE8allocateEmPKv
	_ZN9__gnu_cxx13new_allocatorIPN4llvm6MDNodeEE8allocateEmPKv
	_ZN9__gnu_cxx13new_allocatorIPN4llvm6detail14format_adapterEE8allocateEmPKv
	_ZN9__gnu_cxx13new_allocatorIPN4llvm8ConstantEE8allocateEmPKv
	_ZN9__gnu_cxx13new_allocatorIPN4llvm8FunctionEE8allocateEmPKv
	_ZN9__gnu_cxx13new_allocatorIPNSt8__detail15_Hash_node_baseEE8allocateEmPKv
	_ZN9__gnu_cxx13new_allocatorIPPN4llvm8FunctionEE8allocateEmPKv
	_ZN9__gnu_cxx13new_allocatorIPjE8allocateEmPKv
	_ZN9__gnu_cxx13new_allocatorISt10_List_nodeISt10unique_ptrIN4llvm14SymbolRewriter17RewriteDescriptorESt14default_deleteIS5_EEEE8allocateEmPKv
	_ZN9__gnu_cxx13new_allocatorISt10shared_ptrIN4llvm13BitCodeAbbrevEEE8allocateEmPKv
	_ZN9__gnu_cxx13new_allocatorISt10unique_ptrIN4llvm13ErrorInfoBaseESt14default_deleteIS3_EEE8allocateEmPKv
	_ZN9__gnu_cxx13new_allocatorISt13_Rb_tree_nodeISt4pairIKN4llvm9StringRefES4_EEE8allocateEmPKv
	_ZN9__gnu_cxx13new_allocatorISt13_Rb_tree_nodeISt4pairIKNSt7__cxx1112basic_stringIcSt11char_traitsIcESaIcEEES8_EEE8allocateEmPKv
	_ZN9__gnu_cxx13new_allocatorISt13_Rb_tree_nodeISt4pairIKjN4llvm13AttributeListEEEE8allocateEmPKv
	_ZN9__gnu_cxx13new_allocatorISt13_Rb_tree_nodeIjEE8allocateEmPKv
	_ZN9__gnu_cxx13new_allocatorISt23_Sp_counted_ptr_inplaceIN4llvm13BitCodeAbbrevESaIS3_ELNS_12_Lock_policyE2EEE8allocateEmPKv
	_ZN9__gnu_cxx13new_allocatorISt4pairIN4llvm18PassManagerBuilder16ExtensionPointTyESt8functionIFvRKS3_RNS2_6legacy15PassManagerBaseEEEEE8allocateEmPKv
	_ZN9__gnu_cxx13new_allocatorISt4pairIPKvPN4llvm4PassEEE8allocateEmS3_
	_ZN9__gnu_cxx13new_allocatorISt4pairIPN4llvm11InstructionES4_EE8allocateEmPKv
	_ZN9__gnu_cxx13new_allocatorISt4pairIPN4llvm13DICompileUnitEPNS2_8MetadataEEE8allocateEmPKv
	_ZN9__gnu_cxx13new_allocatorISt4pairIPN4llvm14GlobalVariableEjEE8allocateEmPKv
	_ZN9__gnu_cxx13new_allocatorISt4pairIPN4llvm20GlobalIndirectSymbolEjEE8allocateEmPKv
	_ZN9__gnu_cxx13new_allocatorISt4pairIPN4llvm8ConstantEjEE8allocateEmPKv
	_ZN9__gnu_cxx13new_allocatorISt4pairIPN4llvm8FunctionEjEE8allocateEmPKv
	_ZN9__gnu_cxx13new_allocatorISt4pairISt10unique_ptrIN4llvm5RegexESt14default_deleteIS4_EEjEE8allocateEmPKv
	_ZN9__gnu_cxx13new_allocatorISt4pairIjNSt7__cxx1112basic_stringIcSt11char_traitsIcESaIcEEEEE8allocateEmPKv
	_ZN9__gnu_cxx13new_allocatorISt4pairIjjEE8allocateEmPKv
	_ZN9__gnu_cxx13new_allocatorIhE8allocateEmPKv
	_ZN9__gnu_cxx13new_allocatorIjE8allocateEmPKv
	_ZN9__gnu_cxx13new_allocatorIlE8allocateEmPKv
	_ZN9__gnu_cxx13new_allocatorImE8allocateEmPKv
	_ZN9__gnu_cxx13new_allocatorItE8allocateEmPKv
	_ZNK12_GLOBAL__N_113MPPassManager17createPrinterPassERN4llvm11raw_ostreamERKNSt7__cxx1112basic_stringIcSt11char_traitsIcESaIcEEE.stub
	_ZNK12_GLOBAL__N_118ErrorErrorCategory4nameEv.stub
	_ZNK12_GLOBAL__N_124BitcodeErrorCategoryType4nameEv.stub
	_ZNK12_GLOBAL__N_126InstrProfErrorCategoryType4nameEv.stub
	_ZNK12_GLOBAL__N_127SampleProfErrorCategoryType4nameEv.stub
	_ZNK21CodeViewErrorCategory4nameEv.stub
	_ZNK4llvm10ModulePass17createPrinterPassERNS_11raw_ostreamERKNSt7__cxx1112basic_stringIcSt11char_traitsIcESaIcEEE.stub
	_ZNK4llvm10RegionPass17createPrinterPassERNS_11raw_ostreamERKNSt7__cxx1112basic_stringIcSt11char_traitsIcESaIcEEE.stub
	_ZNK4llvm12FunctionPass17createPrinterPassERNS_11raw_ostreamERKNSt7__cxx1112basic_stringIcSt11char_traitsIcESaIcEEE.stub
	_ZNK4llvm14BasicBlockPass17createPrinterPassERNS_11raw_ostreamERKNSt7__cxx1112basic_stringIcSt11char_traitsIcESaIcEEE.stub
	_ZNK4llvm16CallGraphSCCPass17createPrinterPassERNS_11raw_ostreamERKNSt7__cxx1112basic_stringIcSt11char_traitsIcESaIcEEE.stub
	_ZNK4llvm16TargetPassConfig22createMachineSchedulerEPNS_19MachineSchedContextE.stub
	_ZNK4llvm16TargetPassConfig26createPostMachineSchedulerEPNS_19MachineSchedContextE.stub
	_ZNK4llvm19MachineFunctionPass17createPrinterPassERNS_11raw_ostreamERKNSt7__cxx1112basic_stringIcSt11char_traitsIcESaIcEEE.stub
	_ZNK4llvm6legacy15PassManagerImpl17createPrinterPassERNS_11raw_ostreamERKNSt7__cxx1112basic_stringIcSt11char_traitsIcESaIcEEE.stub
	_ZNK4llvm6legacy23FunctionPassManagerImpl17createPrinterPassERNS_11raw_ostreamERKNSt7__cxx1112basic_stringIcSt11char_traitsIcESaIcEEE.stub
	_ZNK4llvm8LoopPass17createPrinterPassERNS_11raw_ostreamERKNSt7__cxx1112basic_stringIcSt11char_traitsIcESaIcEEE.stub
	_ZNK4llvm9ErrorInfoINS_11StringErrorENS_13ErrorInfoBaseEE14dynamicClassIDEv.stub
	_ZNK4llvm9ErrorInfoINS_9ErrorListENS_13ErrorInfoBaseEE14dynamicClassIDEv.stub
	_ZNSt11_Deque_baseIN4llvm11AssertingVHINS0_11InstructionEEESaIS3_EE15_M_allocate_mapEm
	_ZNSt11_Deque_baseIN4llvm11AssertingVHINS0_11InstructionEEESaIS3_EE16_M_allocate_nodeEv
	_ZNSt11_Deque_baseIN4llvm28DistinctMDOperandPlaceholderESaIS1_EE15_M_allocate_mapEm
	_ZNSt11_Deque_baseIN4llvm28DistinctMDOperandPlaceholderESaIS1_EE16_M_allocate_nodeEv
	_ZNSt11_Deque_baseIPN4llvm8FunctionESaIS2_EE15_M_allocate_mapEm
	_ZNSt11_Deque_baseIPN4llvm8FunctionESaIS2_EE16_M_allocate_nodeEv
	_ZNSt11_Deque_baseIjSaIjEE15_M_allocate_mapEm
	_ZNSt11_Deque_baseIjSaIjEE16_M_allocate_nodeEv
	_ZNSt12_Vector_baseIN4llvm10TimerGroup11PrintRecordESaIS2_EE11_M_allocateEm
	_ZNSt12_Vector_baseIN4llvm13AttributeListESaIS1_EE11_M_allocateEm
	_ZNSt12_Vector_baseIN4llvm13BitcodeModuleESaIS1_EE11_M_allocateEm
	_ZNSt12_Vector_baseIN4llvm14WeakTrackingVHESaIS1_EE11_M_allocateEm
	_ZNSt12_Vector_baseIN4llvm15ReplacementItemESaIS1_EE11_M_allocateEm
	_ZNSt12_Vector_baseIN4llvm15SpecialCaseList7SectionESaIS2_EE11_M_allocateEm
	_ZNSt12_Vector_baseIN4llvm17OperandBundleDefTIPNS0_5ValueEEESaIS4_EE11_M_allocateEm
	_ZNSt12_Vector_baseIN4llvm18BitstreamBlockInfo9BlockInfoESaIS2_EE11_M_allocateEm
	_ZNSt12_Vector_baseIN4llvm23X86MemoryFoldTableEntryESaIS1_EE11_M_allocateEm
	_ZNSt12_Vector_baseIN4llvm3EVTESaIS1_EE11_M_allocateEm
	_ZNSt12_Vector_baseIN4llvm7VecDescESaIS1_EE11_M_allocateEm
	_ZNSt12_Vector_baseIN4llvm9SourceMgr9SrcBufferESaIS2_EE11_M_allocateEm
	_ZNSt12_Vector_baseIN4llvm9StringRefESaIS1_EE11_M_allocateEm
	_ZNSt12_Vector_baseINSt7__cxx1112basic_stringIcSt11char_traitsIcESaIcEEESaIS5_EE11_M_allocateEm
	_ZNSt12_Vector_baseIPKN4llvm6ComdatESaIS3_EE11_M_allocateEm
	_ZNSt12_Vector_baseIPKcSaIS1_EE11_M_allocateEm
	_ZNSt12_Vector_baseIPN4llvm10BasicBlockESaIS2_EE11_M_allocateEm
	_ZNSt12_Vector_baseIPN4llvm10StructTypeESaIS2_EE11_M_allocateEm
	_ZNSt12_Vector_baseIPN4llvm13PMDataManagerESaIS2_EE11_M_allocateEm
	_ZNSt12_Vector_baseIPN4llvm15DomTreeNodeBaseINS0_10BasicBlockEEESaIS4_EE11_M_allocateEm
	_ZNSt12_Vector_baseIPN4llvm4TypeESaIS2_EE11_M_allocateEm
	_ZNSt12_Vector_baseIPN4llvm5ValueESaIS2_EE11_M_allocateEm
	_ZNSt12_Vector_baseIPN4llvm6ComdatESaIS2_EE11_M_allocateEm
	_ZNSt12_Vector_baseIPN4llvm6MDNodeESaIS2_EE11_M_allocateEm
	_ZNSt12_Vector_baseIPN4llvm6detail14format_adapterESaIS3_EE11_M_allocateEm
	_ZNSt12_Vector_baseIPN4llvm8ConstantESaIS2_EE11_M_allocateEm
	_ZNSt12_Vector_baseIPN4llvm8FunctionESaIS2_EE11_M_allocateEm
	_ZNSt12_Vector_baseISt10shared_ptrIN4llvm13BitCodeAbbrevEESaIS3_EE11_M_allocateEm
	_ZNSt12_Vector_baseISt10unique_ptrIN4llvm13ErrorInfoBaseESt14default_deleteIS2_EESaIS5_EE11_M_allocateEm
	_ZNSt12_Vector_baseISt4pairIN4llvm18PassManagerBuilder16ExtensionPointTyESt8functionIFvRKS2_RNS1_6legacy15PassManagerBaseEEEESaISC_EE11_M_allocateEm
	_ZNSt12_Vector_baseISt4pairIPKvPN4llvm4PassEESaIS6_EE11_M_allocateEm
	_ZNSt12_Vector_baseISt4pairIPN4llvm11InstructionES3_ESaIS4_EE11_M_allocateEm
	_ZNSt12_Vector_baseISt4pairIPN4llvm13DICompileUnitEPNS1_8MetadataEESaIS6_EE11_M_allocateEm
	_ZNSt12_Vector_baseISt4pairIPN4llvm14GlobalVariableEjESaIS4_EE11_M_allocateEm
	_ZNSt12_Vector_baseISt4pairIPN4llvm20GlobalIndirectSymbolEjESaIS4_EE11_M_allocateEm
	_ZNSt12_Vector_baseISt4pairIPN4llvm8ConstantEjESaIS4_EE11_M_allocateEm
	_ZNSt12_Vector_baseISt4pairIPN4llvm8FunctionEjESaIS4_EE11_M_allocateEm
	_ZNSt12_Vector_baseISt4pairISt10unique_ptrIN4llvm5RegexESt14default_deleteIS3_EEjESaIS7_EE11_M_allocateEm
	_ZNSt12_Vector_baseISt4pairIjNSt7__cxx1112basic_stringIcSt11char_traitsIcESaIcEEEESaIS7_EE11_M_allocateEm
	_ZNSt12_Vector_baseISt4pairIjjESaIS1_EE11_M_allocateEm
	_ZNSt12_Vector_baseIhSaIhEE11_M_allocateEm
	_ZNSt12_Vector_baseIjSaIjEE11_M_allocateEm
	_ZNSt12_Vector_baseIlSaIlEE11_M_allocateEm
	_ZNSt12_Vector_baseImSaImEE11_M_allocateEm
	_ZNSt12_Vector_baseItSaItEE11_M_allocateEm
	_ZNSt13basic_filebufIcSt11char_traitsIcEE4openEPKcSt13_Ios_Openmode
	_ZNSt13basic_filebufIcSt11char_traitsIcEE5closeEv
	_ZNSt16allocator_traitsISaIN4llvm10TimerGroup11PrintRecordEEE8allocateERS3_m
	_ZNSt16allocator_traitsISaIN4llvm11AssertingVHINS0_11InstructionEEEEE8allocateERS4_m
	_ZNSt16allocator_traitsISaIN4llvm13AttributeListEEE8allocateERS2_m
	_ZNSt16allocator_traitsISaIN4llvm13BitcodeModuleEEE8allocateERS2_m
	_ZNSt16allocator_traitsISaIN4llvm14WeakTrackingVHEEE8allocateERS2_m
	_ZNSt16allocator_traitsISaIN4llvm15ReplacementItemEEE8allocateERS2_m
	_ZNSt16allocator_traitsISaIN4llvm15SpecialCaseList7SectionEEE8allocateERS3_m
	_ZNSt16allocator_traitsISaIN4llvm17OperandBundleDefTIPNS0_5ValueEEEEE8allocateERS5_m
	_ZNSt16allocator_traitsISaIN4llvm18BitstreamBlockInfo9BlockInfoEEE8allocateERS3_m
	_ZNSt16allocator_traitsISaIN4llvm23X86MemoryFoldTableEntryEEE8allocateERS2_m
	_ZNSt16allocator_traitsISaIN4llvm28DistinctMDOperandPlaceholderEEE8allocateERS2_m
	_ZNSt16allocator_traitsISaIN4llvm3EVTEEE8allocateERS2_m
	_ZNSt16allocator_traitsISaIN4llvm7VecDescEEE8allocateERS2_m
	_ZNSt16allocator_traitsISaIN4llvm9SourceMgr9SrcBufferEEE8allocateERS3_m
	_ZNSt16allocator_traitsISaIN4llvm9StringRefEEE8allocateERS2_m
	_ZNSt16allocator_traitsISaINSt7__cxx1112basic_stringIcSt11char_traitsIcESaIcEEEEE8allocateERS6_m
	_ZNSt16allocator_traitsISaINSt8__detail10_Hash_nodeISt4pairIKjN4llvm11SmallVectorImLj4EEEELb0EEEEE8allocateERS9_m
	_ZNSt16allocator_traitsISaIPKN4llvm6ComdatEEE8allocateERS4_m
	_ZNSt16allocator_traitsISaIPKcEE8allocateERS2_m
	_ZNSt16allocator_traitsISaIPN4llvm10BasicBlockEEE8allocateERS3_m
	_ZNSt16allocator_traitsISaIPN4llvm10StructTypeEEE8allocateERS3_m
	_ZNSt16allocator_traitsISaIPN4llvm11AssertingVHINS0_11InstructionEEEEE8allocateERS5_m
	_ZNSt16allocator_traitsISaIPN4llvm13PMDataManagerEEE8allocateERS3_m
	_ZNSt16allocator_traitsISaIPN4llvm15DomTreeNodeBaseINS0_10BasicBlockEEEEE8allocateERS5_m
	_ZNSt16allocator_traitsISaIPN4llvm28DistinctMDOperandPlaceholderEEE8allocateERS3_m
	_ZNSt16allocator_traitsISaIPN4llvm4TypeEEE8allocateERS3_m
	_ZNSt16allocator_traitsISaIPN4llvm5ValueEEE8allocateERS3_m
	_ZNSt16allocator_traitsISaIPN4llvm6ComdatEEE8allocateERS3_m
	_ZNSt16allocator_traitsISaIPN4llvm6MDNodeEEE8allocateERS3_m
	_ZNSt16allocator_traitsISaIPN4llvm6detail14format_adapterEEE8allocateERS4_m
	_ZNSt16allocator_traitsISaIPN4llvm8ConstantEEE8allocateERS3_m
	_ZNSt16allocator_traitsISaIPN4llvm8FunctionEEE8allocateERS3_m
	_ZNSt16allocator_traitsISaIPNSt8__detail15_Hash_node_baseEEE8allocateERS3_m
	_ZNSt16allocator_traitsISaIPPN4llvm8FunctionEEE8allocateERS4_m
	_ZNSt16allocator_traitsISaIPjEE8allocateERS1_m
	_ZNSt16allocator_traitsISaISt10_List_nodeISt10unique_ptrIN4llvm14SymbolRewriter17RewriteDescriptorESt14default_deleteIS4_EEEEE8allocateERS9_m
	_ZNSt16allocator_traitsISaISt10shared_ptrIN4llvm13BitCodeAbbrevEEEE8allocateERS4_m
	_ZNSt16allocator_traitsISaISt10unique_ptrIN4llvm13ErrorInfoBaseESt14default_deleteIS2_EEEE8allocateERS6_m
	_ZNSt16allocator_traitsISaISt13_Rb_tree_nodeISt4pairIKN4llvm9StringRefES3_EEEE8allocateERS7_m
	_ZNSt16allocator_traitsISaISt13_Rb_tree_nodeISt4pairIKNSt7__cxx1112basic_stringIcSt11char_traitsIcESaIcEEES7_EEEE8allocateERSB_m
	_ZNSt16allocator_traitsISaISt13_Rb_tree_nodeISt4pairIKjN4llvm13AttributeListEEEEE8allocateERS7_m
	_ZNSt16allocator_traitsISaISt13_Rb_tree_nodeIjEEE8allocateERS2_m
	_ZNSt16allocator_traitsISaISt23_Sp_counted_ptr_inplaceIN4llvm13BitCodeAbbrevESaIS2_ELN9__gnu_cxx12_Lock_policyE2EEEE8allocateERS7_m
	_ZNSt16allocator_traitsISaISt4pairIN4llvm18PassManagerBuilder16ExtensionPointTyESt8functionIFvRKS2_RNS1_6legacy15PassManagerBaseEEEEEE8allocateERSD_m
	_ZNSt16allocator_traitsISaISt4pairIPKvPN4llvm4PassEEEE8allocateERS7_m
	_ZNSt16allocator_traitsISaISt4pairIPN4llvm11InstructionES3_EEE8allocateERS5_m
	_ZNSt16allocator_traitsISaISt4pairIPN4llvm13DICompileUnitEPNS1_8MetadataEEEE8allocateERS7_m
	_ZNSt16allocator_traitsISaISt4pairIPN4llvm14GlobalVariableEjEEE8allocateERS5_m
	_ZNSt16allocator_traitsISaISt4pairIPN4llvm20GlobalIndirectSymbolEjEEE8allocateERS5_m
	_ZNSt16allocator_traitsISaISt4pairIPN4llvm8ConstantEjEEE8allocateERS5_m
	_ZNSt16allocator_traitsISaISt4pairIPN4llvm8FunctionEjEEE8allocateERS5_m
	_ZNSt16allocator_traitsISaISt4pairISt10unique_ptrIN4llvm5RegexESt14default_deleteIS3_EEjEEE8allocateERS8_m
	_ZNSt16allocator_traitsISaISt4pairIjNSt7__cxx1112basic_stringIcSt11char_traitsIcESaIcEEEEEE8allocateERS8_m
	_ZNSt16allocator_traitsISaISt4pairIjjEEE8allocateERS2_m
	_ZNSt16allocator_traitsISaIhEE8allocateERS0_m
	_ZNSt16allocator_traitsISaIjEE8allocateERS0_m
	_ZNSt16allocator_traitsISaIlEE8allocateERS0_m
	_ZNSt16allocator_traitsISaImEE8allocateERS0_m
	_ZNSt16allocator_traitsISaItEE8allocateERS0_m
	_ZNSt17_Function_handlerIFPN4llvm4TypeEjEZN12_GLOBAL__N_113BitcodeReader16parseBitcodeIntoEPNS0_6ModuleEbbE3$_2E9_M_invokeERKSt9_Any_dataOj.stub
	_ZNSt17_Function_handlerIFRN4llvm15AssumptionCacheERNS0_8FunctionEEZN12_GLOBAL__N_129SampleProfileLoaderLegacyPassC1ENS0_9StringRefEbEUlS4_E_E9_M_invokeERKSt9_Any_dataS4_.stub
	_ZNSt17_Function_handlerIFRN4llvm19TargetTransformInfoERNS0_8FunctionEEZN12_GLOBAL__N_129SampleProfileLoaderLegacyPassC1ENS0_9StringRefEbEUlS4_E0_E9_M_invokeERKSt9_Any_dataS4_.stub
	_ZNSt23_Sp_counted_ptr_inplaceIN4llvm13BitCodeAbbrevESaIS1_ELN9__gnu_cxx12_Lock_policyE2EE14_M_get_deleterERKSt9type_info.stub
	_ZNSt3_V215system_categoryEv
	_ZNSt3_V216generic_categoryEv
	_ZNSt7__cxx1110_List_baseISt10unique_ptrIN4llvm14SymbolRewriter17RewriteDescriptorESt14default_deleteIS4_EESaIS7_EE11_M_get_nodeEv
	_ZNSt7__cxx1112basic_stringIcSt11char_traitsIcESaIcEE10_M_replaceEmmPKcm
	_ZNSt7__cxx1112basic_stringIcSt11char_traitsIcESaIcEE9_M_appendEPKcm
	_ZNSt7__cxx1112basic_stringIcSt11char_traitsIcESaIcEE9_M_createERmm
	_ZNSt8_Rb_treeIN4llvm9StringRefESt4pairIKS1_S1_ESt10_Select1stIS4_ESt4lessIS1_ESaIS4_EE11_M_get_nodeEv
	_ZNSt8_Rb_treeINSt7__cxx1112basic_stringIcSt11char_traitsIcESaIcEEESt4pairIKS5_S5_ESt10_Select1stIS8_ESt4lessIS5_ESaIS8_EE11_M_get_nodeEv
	_ZNSt8_Rb_treeIjSt4pairIKjN4llvm13AttributeListEESt10_Select1stIS4_ESt4lessIjESaIS4_EE11_M_get_nodeEv
	_ZNSt8_Rb_treeIjjSt9_IdentityIjESt4lessIjESaIjEE11_M_get_nodeEv
	_ZSt18_Rb_tree_decrementPSt18_Rb_tree_node_base
	_ZSt18_Rb_tree_incrementPKSt18_Rb_tree_node_base
	_ZSt18_Rb_tree_incrementPSt18_Rb_tree_node_base
	_ZStrsIcSt11char_traitsIcESaIcEERSt13basic_istreamIT_T0_ES7_RNSt7__cxx1112basic_stringIS4_S5_T1_EE
	_ZThn104_N12_GLOBAL__N_17RABasic7dequeueEv.stub
	_ZThn104_N12_GLOBAL__N_17RABasic7spillerEv.stub
	_ZThn104_N12_GLOBAL__N_18RAGreedy7dequeueEv.stub
	_ZThn104_N12_GLOBAL__N_18RAGreedy7spillerEv.stub
	_ZThn32_N12_GLOBAL__N_113MPPassManager15getOnTheFlyPassEPN4llvm4PassEPKvRNS1_8FunctionE.stub
	_ZThn32_N12_GLOBAL__N_113MPPassManager9getAsPassEv.stub
	_ZThn32_N4llvm13FPPassManager9getAsPassEv.stub
	_ZThn32_N4llvm6legacy15PassManagerImpl9getAsPassEv.stub
	_ZThn32_N4llvm6legacy23FunctionPassManagerImpl9getAsPassEv.stub
	_ZThn424_N4llvm6legacy15PassManagerImpl18getAsPMDataManagerEv.stub
	_ZThn424_N4llvm6legacy23FunctionPassManagerImpl18getAsPMDataManagerEv.stub
	_ZlsRN4llvm11raw_ostreamERKSt6vectorIN12_GLOBAL__N_111LowerSwitch9CaseRangeESaIS5_EE.stub
	_Znam
	_Znwm
	_ZnwmRKSt9nothrow_t
	__ctype_b_loc
	__ctype_tolower_loc
	__ctype_toupper_loc
	__errno_location
	calloc
	getcwd
	getenv
	llvm.invariant.start.p0i8
	localtime_r
	malloc
	memchr
	mmap
	realloc
	realpath
	strchr
	strdup
	strerror_r
	strsep
	strsignal
	verifier.nondet.1174
	verifier.nondet.124
	verifier.nondet.154
	verifier.nondet.169
	verifier.nondet.196
	verifier.nondet.254
	verifier.nondet.5
	verifier.nondet.55
	verifier.nondet.640
	verifier.nondet.73
	verifier.nondet.74
	verifier.nondet.743
	verifier.nondet.90
Warning: Running SVF PTA!
BRUNCH_STAT PTA_KIND SVF_Andersen_Diff_Wave_NoType

[startup+1.50025 s]
/proc/loadavg: 1.23 1.17 1.11 5/935 25827
/proc/meminfo: memFree=75295988/131989204 swapFree=244112016/244398076
[pid=25820] ppid=25819 vsize=412852 memory=382112 CPUtime=1.49 cores=0-39
/proc/25820/stat : 25820 (seapp) R 25819 25820 40453 34836 17777 4194304 99409 0 0 0 135 14 0 0 20 0 1 0 477958338 422760448 95528 18446744073709551615 4194304 21451464 140736584440000 0 0 0 0 0 1098931967 0 0 0 17 3 0 0 0 0 0 21459200 21708072 39727104 140736584442556 140736584442907 140736584442907 140736584445884 0
/proc/25820/statm: 103213 95528 3418 4214 0 92188 0
Current children cumulated CPU time: 1.49 s
Current children cumulated vsize: 412852 KiB
Current children cumulated memory: 382112 KiB

[startup+3.12123 s]
/proc/loadavg: 1.21 1.17 1.11 4/932 25851
/proc/meminfo: memFree=73402688/131989204 swapFree=244112016/244398076
[pid=25820] ppid=25819 vsize=2226580 memory=2196056 CPUtime=3.11 cores=0-39
/proc/25820/stat : 25820 (seapp) R 25819 25820 40453 34836 17777 4194304 552866 0 0 0 228 83 0 0 20 0 1 0 477958338 2280017920 549014 18446744073709551615 4194304 21451464 140736584440000 0 0 0 0 0 1098931967 0 0 0 17 3 0 0 0 0 0 21459200 21708072 39727104 140736584442556 140736584442907 140736584442907 140736584445884 0
/proc/25820/statm: 556678 549014 3418 4214 0 545653 0
Current children cumulated CPU time: 3.11 s
Current children cumulated vsize: 2226580 KiB
Current children cumulated memory: 2196056 KiB

[startup+6.30022 s]
/proc/loadavg: 1.21 1.17 1.11 3/930 25889
/proc/meminfo: memFree=72739520/131989204 swapFree=244112016/244398076
[pid=25820] ppid=25819 vsize=2774296 memory=2743588 CPUtime=6.29 cores=0-39
/proc/25820/stat : 25820 (seapp) R 25819 25820 40453 34836 17777 4194304 689786 0 0 0 518 111 0 0 20 0 1 0 477958338 2840879104 685897 18446744073709551615 4194304 21451464 140736584440000 0 0 0 0 0 1098931967 0 0 0 17 3 0 0 0 0 0 21459200 21708072 39727104 140736584442556 140736584442907 140736584442907 140736584445884 0
/proc/25820/statm: 693574 685897 3418 4214 0 682549 0
Current children cumulated CPU time: 6.29 s
Current children cumulated vsize: 2774296 KiB
Current children cumulated memory: 2743588 KiB

[startup+12.7002 s]
/proc/loadavg: 1.19 1.17 1.11 2/930 25966
/proc/meminfo: memFree=72654560/131989204 swapFree=244112016/244398076
[pid=25820] ppid=25819 vsize=2854948 memory=2824372 CPUtime=12.68 cores=0-39
/proc/25820/stat : 25820 (seapp) R 25819 25820 40453 34836 17777 4194304 709961 0 0 0 1151 117 0 0 20 0 1 0 477958338 2923466752 706093 18446744073709551615 4194304 21451464 140736584440000 0 0 0 0 0 1098931967 0 0 0 17 3 0 0 0 0 0 21459200 21708072 39727104 140736584442556 140736584442907 140736584442907 140736584445884 0
/proc/25820/statm: 713737 706093 3418 4214 0 702712 0
Current children cumulated CPU time: 12.68 s
Current children cumulated vsize: 2854948 KiB
Current children cumulated memory: 2824372 KiB

[startup+25.5004 s]
/proc/loadavg: 1.15 1.16 1.11 2/930 26123
/proc/meminfo: memFree=71507652/131989204 swapFree=244112016/244398076
[pid=25820] ppid=25819 vsize=4000592 memory=3970176 CPUtime=25.49 cores=0-39
/proc/25820/stat : 25820 (seapp) R 25819 25820 40453 34836 17777 4194304 1131549 0 0 0 2292 257 0 0 20 0 1 0 477958338 4096606208 992544 18446744073709551615 4194304 21451464 140736584440000 0 0 0 0 0 1098931967 0 0 0 17 10 0 0 0 0 0 21459200 21708072 39727104 140736584442556 140736584442907 140736584442907 140736584445884 0
/proc/25820/statm: 1000148 992544 3466 4214 0 989123 0
Current children cumulated CPU time: 25.49 s
Current children cumulated vsize: 4000592 KiB
Current children cumulated memory: 3970176 KiB

[startup+51.1223 s]
/proc/loadavg: 1.10 1.14 1.10 2/930 26443
/proc/meminfo: memFree=71085036/131989204 swapFree=244112016/244398076
[pid=25820] ppid=25819 vsize=4415060 memory=4384808 CPUtime=51.11 cores=0-39
/proc/25820/stat : 25820 (seapp) R 25819 25820 40453 34836 17777 4194304 1238080 0 0 0 4792 319 0 0 20 0 1 0 477958338 4521021440 1096202 18446744073709551615 4194304 21451464 140736584440000 0 0 0 0 0 1098931967 0 0 0 17 10 0 0 0 0 0 21459200 21708072 39727104 140736584442556 140736584442907 140736584442907 140736584445884 0
/proc/25820/statm: 1103765 1096202 3466 4214 0 1092740 0
Current children cumulated CPU time: 51.11 s
Current children cumulated vsize: 4415060 KiB
Current children cumulated memory: 4384808 KiB

[startup+102.3 s]
/proc/loadavg: 1.25 1.18 1.12 2/935 27095
/proc/meminfo: memFree=70709132/131989204 swapFree=244112016/244398076
[pid=25820] ppid=25819 vsize=4787528 memory=4757204 CPUtime=102.29 cores=0-39
/proc/25820/stat : 25820 (seapp) R 25819 25820 40453 34836 17777 4194304 1331542 0 0 0 9885 344 0 0 20 0 1 0 477958338 4902428672 1189301 18446744073709551615 4194304 21451464 140736584440000 0 0 0 0 0 1098931967 0 0 0 17 10 0 0 0 0 0 21459200 21708072 39727104 140736584442556 140736584442907 140736584442907 140736584445884 0
/proc/25820/statm: 1196882 1189301 3466 4214 0 1185857 0
Current children cumulated CPU time: 102.29 s
Current children cumulated vsize: 4787528 KiB
Current children cumulated memory: 4757204 KiB

[startup+162.3 s]
/proc/loadavg: 1.09 1.15 1.11 2/935 27838
/proc/meminfo: memFree=70489228/131989204 swapFree=244112016/244398076
[pid=25820] ppid=25819 vsize=5007572 memory=4977284 CPUtime=162.29 cores=0-39
/proc/25820/stat : 25820 (seapp) R 25819 25820 40453 34836 17777 4194304 1386909 0 0 0 15848 381 0 0 20 0 1 0 477958338 5127753728 1244321 18446744073709551615 4194304 21451464 140736584440000 0 0 0 0 0 1098931967 0 0 0 17 10 0 0 0 0 0 21459200 21708072 39727104 140736584442556 140736584442907 140736584442907 140736584445884 0
/proc/25820/statm: 1251893 1244321 3466 4214 0 1240868 0
Current children cumulated CPU time: 162.29 s
Current children cumulated vsize: 5007572 KiB
Current children cumulated memory: 4977284 KiB

[startup+222.3 s]
/proc/loadavg: 1.08 1.13 1.10 2/931 28579
/proc/meminfo: memFree=70371040/131989204 swapFree=244112016/244398076
[pid=25820] ppid=25819 vsize=5127560 memory=5097144 CPUtime=222.29 cores=0-39
/proc/25820/stat : 25820 (seapp) R 25819 25820 40453 34836 17777 4194304 1416961 0 0 0 21827 402 0 0 20 0 1 0 477958338 5250621440 1274286 18446744073709551615 4194304 21451464 140736584440000 0 0 0 0 0 1098931967 0 0 0 17 10 0 0 0 0 0 21459200 21708072 39727104 140736584442556 140736584442907 140736584442907 140736584445884 0
/proc/25820/statm: 1281890 1274286 3466 4214 0 1270865 0
Current children cumulated CPU time: 222.29 s
Current children cumulated vsize: 5127560 KiB
Current children cumulated memory: 5097144 KiB

[startup+282.3 s]
/proc/loadavg: 1.03 1.11 1.09 2/933 29303
/proc/meminfo: memFree=70271300/131989204 swapFree=244112016/244398076
[pid=25820] ppid=25819 vsize=5225504 memory=5195156 CPUtime=282.29 cores=0-39
/proc/25820/stat : 25820 (seapp) R 25819 25820 40453 34836 17777 4194304 1441885 0 0 0 27811 418 0 0 20 0 1 0 477958338 5350916096 1298789 18446744073709551615 4194304 21451464 140736584440000 0 0 0 0 0 1098931967 0 0 0 17 10 0 0 0 0 0 21459200 21708072 39727104 140736584442556 140736584442907 140736584442907 140736584445884 0
/proc/25820/statm: 1306376 1298789 3466 4214 0 1295351 0
Current children cumulated CPU time: 282.29 s
Current children cumulated vsize: 5225504 KiB
Current children cumulated memory: 5195156 KiB

[startup+342.3 s]
/proc/loadavg: 1.06 1.10 1.09 2/933 30041
/proc/meminfo: memFree=70134832/131989204 swapFree=244112016/244398076
[pid=25820] ppid=25819 vsize=5361596 memory=5331036 CPUtime=342.29 cores=0-39
/proc/25820/stat : 25820 (seapp) R 25819 25820 40453 34836 17777 4194304 1476193 0 0 0 33791 438 0 0 20 0 1 0 477958338 5490274304 1332759 18446744073709551615 4194304 21451464 140736584440000 0 0 0 0 0 1098931967 0 0 0 17 10 0 0 0 0 0 21459200 21708072 39727104 140736584442556 140736584442907 140736584442907 140736584445884 0
/proc/25820/statm: 1340399 1332759 3466 4214 0 1329374 0
Current children cumulated CPU time: 342.29 s
Current children cumulated vsize: 5361596 KiB
Current children cumulated memory: 5331036 KiB

[startup+402.3 s]
/proc/loadavg: 1.16 1.11 1.09 2/932 30814
/proc/meminfo: memFree=69984812/131989204 swapFree=244112016/244398076
[pid=25820] ppid=25819 vsize=5512472 memory=5481964 CPUtime=402.3 cores=0-39
/proc/25820/stat : 25820 (seapp) R 25819 25820 40453 34836 17777 4194304 1515190 0 0 0 39768 462 0 0 20 0 1 0 477958338 5644771328 1370491 18446744073709551615 4194304 21451464 140736584440000 0 0 0 0 0 1098931967 0 0 0 17 10 0 0 0 0 0 21459200 21708072 39727104 140736584442556 140736584442907 140736584442907 140736584445884 0
/proc/25820/statm: 1378118 1370491 3466 4214 0 1367093 0
Current children cumulated CPU time: 402.3 s
Current children cumulated vsize: 5512472 KiB
Current children cumulated memory: 5481964 KiB

[startup+462.3 s]
/proc/loadavg: 1.06 1.09 1.09 2/935 31564
/proc/meminfo: memFree=69786636/131989204 swapFree=244112016/244398076
[pid=25820] ppid=25819 vsize=5707700 memory=5677356 CPUtime=462.3 cores=0-39
/proc/25820/stat : 25820 (seapp) R 25819 25820 40453 34836 17777 4194304 1564509 0 0 0 45744 486 0 0 20 0 1 0 477958338 5844684800 1419339 18446744073709551615 4194304 21451464 140736584440000 0 0 0 0 0 1098931967 0 0 0 17 10 0 0 0 0 0 21459200 21708072 39727104 140736584442556 140736584442907 140736584442907 140736584445884 0
/proc/25820/statm: 1426925 1419339 3466 4214 0 1415900 0
Current children cumulated CPU time: 462.3 s
Current children cumulated vsize: 5707700 KiB
Current children cumulated memory: 5677356 KiB

[startup+522.3 s]
/proc/loadavg: 1.24 1.13 1.10 2/935 32310
/proc/meminfo: memFree=69643520/131989204 swapFree=244112016/244398076
[pid=25820] ppid=25819 vsize=5849828 memory=5819428 CPUtime=522.3 cores=0-39
/proc/25820/stat : 25820 (seapp) R 25819 25820 40453 34836 17777 4194304 1600899 0 0 0 51718 512 0 0 20 0 1 0 477958338 5990223872 1454857 18446744073709551615 4194304 21451464 140736584440000 0 0 0 0 0 1098931967 0 0 0 17 10 0 0 0 0 0 21459200 21708072 39727104 140736584442556 140736584442907 140736584442907 140736584445884 0
/proc/25820/statm: 1462457 1454857 3466 4214 0 1451432 0
Current children cumulated CPU time: 522.3 s
Current children cumulated vsize: 5849828 KiB
Current children cumulated memory: 5819428 KiB

[startup+582.3 s]
/proc/loadavg: 1.12 1.12 1.10 2/933 33055
/proc/meminfo: memFree=69543672/131989204 swapFree=244112016/244398076
[pid=25820] ppid=25819 vsize=5950016 memory=5919440 CPUtime=582.3 cores=0-39
/proc/25820/stat : 25820 (seapp) R 25819 25820 40453 34836 17777 4194304 1626145 0 0 0 57698 532 0 0 20 0 1 0 477958338 6092816384 1479860 18446744073709551615 4194304 21451464 140736584440000 0 0 0 0 0 1098931967 0 0 0 17 10 0 0 0 0 0 21459200 21708072 39727104 140736584442556 140736584442907 140736584442907 140736584445884 0
/proc/25820/statm: 1487504 1479860 3466 4214 0 1476479 0
Current children cumulated CPU time: 582.3 s
Current children cumulated vsize: 5950016 KiB
Current children cumulated memory: 5919440 KiB

[startup+642.3 s]
/proc/loadavg: 1.11 1.11 1.09 2/931 33804
/proc/meminfo: memFree=69428236/131989204 swapFree=244112016/244398076
[pid=25820] ppid=25819 vsize=6070268 memory=6039892 CPUtime=642.3 cores=0-39
/proc/25820/stat : 25820 (seapp) R 25819 25820 40453 34836 17777 4194304 1656348 0 0 0 63674 556 0 0 20 0 1 0 477958338 6215954432 1509973 18446744073709551615 4194304 21451464 140736584440000 0 0 0 0 0 1098931967 0 0 0 17 10 0 0 0 0 0 21459200 21708072 39727104 140736584442556 140736584442907 140736584442907 140736584445884 0
/proc/25820/statm: 1517567 1509973 3466 4214 0 1506542 0
Current children cumulated CPU time: 642.3 s
Current children cumulated vsize: 6070268 KiB
Current children cumulated memory: 6039892 KiB

[startup+702.3 s]
/proc/loadavg: 1.04 1.09 1.08 2/932 34577
/proc/meminfo: memFree=69292816/131989204 swapFree=244112016/244398076
[pid=25820] ppid=25819 vsize=6199496 memory=6169236 CPUtime=702.31 cores=0-39
/proc/25820/stat : 25820 (seapp) R 25819 25820 40453 34836 17777 4194304 1688858 0 0 0 69651 580 0 0 20 0 1 0 477958338 6348283904 1542309 18446744073709551615 4194304 21451464 140736584440000 0 0 0 0 0 1098931967 0 0 0 17 10 0 0 0 0 0 21459200 21708072 39727104 140736584442556 140736584442907 140736584442907 140736584445884 0
/proc/25820/statm: 1549874 1542309 3466 4214 0 1538849 0
Current children cumulated CPU time: 702.31 s
Current children cumulated vsize: 6199496 KiB
Current children cumulated memory: 6169236 KiB

[startup+762.3 s]
/proc/loadavg: 1.11 1.11 1.09 2/932 35342
/proc/meminfo: memFree=69207544/131989204 swapFree=244112016/244398076
[pid=25820] ppid=25819 vsize=6286088 memory=6255672 CPUtime=762.3 cores=0-39
/proc/25820/stat : 25820 (seapp) R 25819 25820 40453 34836 17777 4194304 1710601 0 0 0 75626 604 0 0 20 0 1 0 477958338 6436954112 1563918 18446744073709551615 4194304 21451464 140736584440000 0 0 0 0 0 1098931967 0 0 0 17 10 0 0 0 0 0 21459200 21708072 39727104 140736584442556 140736584442907 140736584442907 140736584445884 0
/proc/25820/statm: 1571522 1563918 3466 4214 0 1560497 0
Current children cumulated CPU time: 762.3 s
Current children cumulated vsize: 6286088 KiB
Current children cumulated memory: 6255672 KiB

[startup+822.3 s]
/proc/loadavg: 1.13 1.12 1.09 2/930 36070
/proc/meminfo: memFree=69071620/131989204 swapFree=244112016/244398076
[pid=25820] ppid=25819 vsize=6422708 memory=6392260 CPUtime=822.3 cores=0-39
/proc/25820/stat : 25820 (seapp) R 25819 25820 40453 34836 17777 4194304 1744790 0 0 0 81599 631 0 0 20 0 1 0 477958338 6576852992 1598065 18446744073709551615 4194304 21451464 140736584440000 0 0 0 0 0 1098931967 0 0 0 17 10 0 0 0 0 0 21459200 21708072 39727104 140736584442556 140736584442907 140736584442907 140736584445884 0
/proc/25820/statm: 1605677 1598065 3466 4214 0 1594652 0
Current children cumulated CPU time: 822.3 s
Current children cumulated vsize: 6422708 KiB
Current children cumulated memory: 6392260 KiB

[startup+882.3 s]
/proc/loadavg: 1.05 1.10 1.09 2/935 36829
/proc/meminfo: memFree=68917772/131989204 swapFree=244112016/244398076
[pid=25820] ppid=25819 vsize=6577280 memory=6546840 CPUtime=882.31 cores=0-39
/proc/25820/stat : 25820 (seapp) R 25819 25820 40453 34836 17777 4194304 1783479 0 0 0 87577 654 0 0 20 0 1 0 477958338 6735134720 1636710 18446744073709551615 4194304 21451464 140736584440000 0 0 0 0 0 1098931967 0 0 0 17 10 0 0 0 0 0 21459200 21708072 39727104 140736584442556 140736584442907 140736584442907 140736584445884 0
/proc/25820/statm: 1644320 1636710 3466 4214 0 1633295 0
Current children cumulated CPU time: 882.31 s
Current children cumulated vsize: 6577280 KiB
Current children cumulated memory: 6546840 KiB

[startup+942.3 s]
/proc/loadavg: 1.09 1.09 1.09 2/933 37574
/proc/meminfo: memFree=68767692/131989204 swapFree=244112016/244398076
[pid=25820] ppid=25819 vsize=6727892 memory=6697392 CPUtime=942.31 cores=0-39
/proc/25820/stat : 25820 (seapp) R 25819 25820 40453 34836 17777 4194304 1824734 0 0 0 93546 685 0 0 20 0 1 0 477958338 6889361408 1674348 18446744073709551615 4194304 21451464 140736584440000 0 0 0 0 0 1098931967 0 0 0 17 10 0 0 0 0 0 21459200 21708072 39727104 140736584442556 140736584442907 140736584442907 140736584445884 0
/proc/25820/statm: 1681973 1674348 3466 4214 0 1670948 0
Current children cumulated CPU time: 942.31 s
Current children cumulated vsize: 6727892 KiB
Current children cumulated memory: 6697392 KiB

[startup+1002.3 s]
/proc/loadavg: 1.37 1.16 1.11 2/931 38312
/proc/meminfo: memFree=68616668/131989204 swapFree=244112016/244398076
[pid=25820] ppid=25819 vsize=6879560 memory=6849084 CPUtime=1002.31 cores=0-39
/proc/25820/stat : 25820 (seapp) R 25819 25820 40453 34836 17777 4194304 1862820 0 0 0 99525 706 0 0 20 0 1 0 477958338 7044669440 1712271 18446744073709551615 4194304 21451464 140736584440000 0 0 0 0 0 1098931967 0 0 0 17 10 0 0 0 0 0 21459200 21708072 39727104 140736584442556 140736584442907 140736584442907 140736584445884 0
/proc/25820/statm: 1719890 1712271 3466 4214 0 1708865 0
Current children cumulated CPU time: 1002.31 s
Current children cumulated vsize: 6879560 KiB
Current children cumulated memory: 6849084 KiB

[startup+1062.3 s]
/proc/loadavg: 1.54 1.27 1.15 2/931 39056
/proc/meminfo: memFree=68490032/131989204 swapFree=244112016/244398076
[pid=25820] ppid=25819 vsize=7007996 memory=6977508 CPUtime=1062.31 cores=0-39
/proc/25820/stat : 25820 (seapp) R 25819 25820 40453 34836 17777 4194304 1897783 0 0 0 105484 747 0 0 20 0 1 0 477958338 7176187904 1744377 18446744073709551615 4194304 21451464 140736584440000 0 0 0 0 0 1098931967 0 0 0 17 10 0 0 0 0 0 21459200 21708072 39727104 140736584442556 140736584442907 140736584442907 140736584445884 0
/proc/25820/statm: 1751999 1744377 3466 4214 0 1740974 0
Current children cumulated CPU time: 1062.31 s
Current children cumulated vsize: 7007996 KiB
Current children cumulated memory: 6977508 KiB

[startup+1122.3 s]
/proc/loadavg: 1.20 1.22 1.14 2/930 39792
/proc/meminfo: memFree=68408740/131989204 swapFree=244112016/244398076
[pid=25820] ppid=25819 vsize=7085348 memory=7055036 CPUtime=1122.31 cores=0-39
/proc/25820/stat : 25820 (seapp) R 25819 25820 40453 34836 17777 4194304 1920523 0 0 0 111465 766 0 0 20 0 1 0 477958338 7255396352 1763759 18446744073709551615 4194304 21451464 140736584440000 0 0 0 0 0 1098931967 0 0 0 17 10 0 0 0 0 0 21459200 21708072 39727104 140736584442556 140736584442907 140736584442907 140736584445884 0
/proc/25820/statm: 1771337 1763759 3466 4214 0 1760312 0
Current children cumulated CPU time: 1122.31 s
Current children cumulated vsize: 7085348 KiB
Current children cumulated memory: 7055036 KiB

[startup+1182.3 s]
/proc/loadavg: 1.21 1.22 1.15 2/930 40532
/proc/meminfo: memFree=68358248/131989204 swapFree=244112016/244398076
[pid=25820] ppid=25819 vsize=7136300 memory=7106004 CPUtime=1182.31 cores=0-39
/proc/25820/stat : 25820 (seapp) R 25819 25820 40453 34836 17777 4194304 1933598 0 0 0 117444 787 0 0 20 0 1 0 477958338 7307571200 1776501 18446744073709551615 4194304 21451464 140736584440000 0 0 0 0 0 1098931967 0 0 0 17 10 0 0 0 0 0 21459200 21708072 39727104 140736584442556 140736584442907 140736584442907 140736584445884 0
/proc/25820/statm: 1784075 1776501 3466 4214 0 1773050 0
Current children cumulated CPU time: 1182.31 s
Current children cumulated vsize: 7136300 KiB
Current children cumulated memory: 7106004 KiB

[startup+1242.3 s]
/proc/loadavg: 1.15 1.21 1.15 2/930 649
/proc/meminfo: memFree=68294104/131989204 swapFree=244112016/244398076
[pid=25820] ppid=25819 vsize=7198868 memory=7168552 CPUtime=1242.31 cores=0-39
/proc/25820/stat : 25820 (seapp) R 25819 25820 40453 34836 17777 4194304 1949566 0 0 0 123423 808 0 0 20 0 1 0 477958338 7371640832 1792138 18446744073709551615 4194304 21451464 140736584440000 0 0 0 0 0 1098931967 0 0 0 17 10 0 0 0 0 0 21459200 21708072 39727104 140736584442556 140736584442907 140736584442907 140736584445884 0
/proc/25820/statm: 1799717 1792138 3466 4214 0 1788692 0
Current children cumulated CPU time: 1242.31 s
Current children cumulated vsize: 7198868 KiB
Current children cumulated memory: 7168552 KiB

[startup+1302.3 s]
/proc/loadavg: 1.05 1.17 1.13 3/930 1441
/proc/meminfo: memFree=68221444/131989204 swapFree=244112016/244398076
[pid=25820] ppid=25819 vsize=7272656 memory=7242292 CPUtime=1302.32 cores=0-39
/proc/25820/stat : 25820 (seapp) R 25819 25820 40453 34836 17777 4194304 1969320 0 0 0 129391 841 0 0 20 0 1 0 477958338 7447199744 1810573 18446744073709551615 4194304 21451464 140736584440000 0 0 0 0 0 1098931967 0 0 0 17 10 0 0 0 0 0 21459200 21708072 39727104 140736584442556 140736584442907 140736584442907 140736584445884 0
/proc/25820/statm: 1818164 1810573 3466 4214 0 1807139 0
Current children cumulated CPU time: 1302.32 s
Current children cumulated vsize: 7272656 KiB
Current children cumulated memory: 7242292 KiB

[startup+1362.3 s]
/proc/loadavg: 1.18 1.18 1.14 2/934 2216
/proc/meminfo: memFree=68144960/131989204 swapFree=244112016/244398076
[pid=25820] ppid=25819 vsize=7346180 memory=7315760 CPUtime=1362.31 cores=0-39
/proc/25820/stat : 25820 (seapp) R 25819 25820 40453 34836 17777 4194304 1988006 0 0 0 135370 861 0 0 20 0 1 0 477958338 7522488320 1828940 18446744073709551615 4194304 21451464 140736584440000 0 0 0 0 0 1098931967 0 0 0 17 10 0 0 0 0 0 21459200 21708072 39727104 140736584442556 140736584442907 140736584442907 140736584445884 0
/proc/25820/statm: 1836545 1828940 3466 4214 0 1825520 0
Current children cumulated CPU time: 1362.31 s
Current children cumulated vsize: 7346180 KiB
Current children cumulated memory: 7315760 KiB

[startup+1422.3 s]
/proc/loadavg: 1.12 1.16 1.13 2/934 3178
/proc/meminfo: memFree=68071232/131989204 swapFree=244112016/244398076
[pid=25820] ppid=25819 vsize=7419968 memory=7389608 CPUtime=1422.32 cores=0-39
/proc/25820/stat : 25820 (seapp) R 25819 25820 40453 34836 17777 4194304 2007287 0 0 0 141347 885 0 0 20 0 1 0 477958338 7598047232 1847402 18446744073709551615 4194304 21451464 140736584440000 0 0 0 0 0 1098931967 0 0 0 17 10 0 0 0 0 0 21459200 21708072 39727104 140736584442556 140736584442907 140736584442907 140736584445884 0
/proc/25820/statm: 1854992 1847402 3466 4214 0 1843967 0
Current children cumulated CPU time: 1422.32 s
Current children cumulated vsize: 7419968 KiB
Current children cumulated memory: 7389608 KiB

[startup+1482.3 s]
/proc/loadavg: 1.04 1.13 1.12 2/931 3930
/proc/meminfo: memFree=68046372/131989204 swapFree=244112016/244398076
[pid=25820] ppid=25819 vsize=7444872 memory=7414500 CPUtime=1482.32 cores=0-39
/proc/25820/stat : 25820 (seapp) R 25819 25820 40453 34836 17777 4194304 2058203 0 0 0 147290 942 0 0 20 0 1 0 477958338 7623548928 1853625 18446744073709551615 4194304 21451464 140736584440000 0 0 0 0 0 1098931967 0 0 0 17 10 0 0 0 0 0 21459200 21708072 39727104 140736584442556 140736584442907 140736584442907 140736584445884 0
/proc/25820/statm: 1861218 1853625 3466 4214 0 1850193 0
Current children cumulated CPU time: 1482.32 s
Current children cumulated vsize: 7444872 KiB
Current children cumulated memory: 7414500 KiB

[startup+1542.3 s]
/proc/loadavg: 1.01 1.10 1.11 2/931 4671
/proc/meminfo: memFree=68046488/131989204 swapFree=244112016/244398076
[pid=25820] ppid=25819 vsize=7444872 memory=7414500 CPUtime=1542.32 cores=0-39
/proc/25820/stat : 25820 (seapp) R 25819 25820 40453 34836 17777 4194304 2059778 0 0 0 153272 960 0 0 20 0 1 0 477958338 7623548928 1853625 18446744073709551615 4194304 21451464 140736584440000 0 0 0 0 0 1098931967 0 0 0 17 10 0 0 0 0 0 21459200 21708072 39727104 140736584442556 140736584442907 140736584442907 140736584445884 0
/proc/25820/statm: 1861218 1853625 3466 4214 0 1850193 0
Current children cumulated CPU time: 1542.32 s
Current children cumulated vsize: 7444872 KiB
Current children cumulated memory: 7414500 KiB

[startup+1602.3 s]
/proc/loadavg: 1.04 1.10 1.10 2/931 5412
/proc/meminfo: memFree=68046108/131989204 swapFree=244112016/244398076
[pid=25820] ppid=25819 vsize=7444872 memory=7414500 CPUtime=1602.32 cores=0-39
/proc/25820/stat : 25820 (seapp) R 25819 25820 40453 34836 17777 4194304 2061610 0 0 0 159252 980 0 0 20 0 1 0 477958338 7623548928 1853625 18446744073709551615 4194304 21451464 140736584440000 0 0 0 0 0 1098931967 0 0 0 17 10 0 0 0 0 0 21459200 21708072 39727104 140736584442556 140736584442907 140736584442907 140736584445884 0
/proc/25820/statm: 1861218 1853625 3466 4214 0 1850193 0
Current children cumulated CPU time: 1602.32 s
Current children cumulated vsize: 7444872 KiB
Current children cumulated memory: 7414500 KiB

[startup+1662.3 s]
/proc/loadavg: 1.29 1.14 1.12 2/930 6169
/proc/meminfo: memFree=68047408/131989204 swapFree=244112016/244398076
[pid=25820] ppid=25819 vsize=7444872 memory=7414500 CPUtime=1662.33 cores=0-39
/proc/25820/stat : 25820 (seapp) R 25819 25820 40453 34836 17777 4194304 2066742 0 0 0 165235 998 0 0 20 0 1 0 477958338 7623548928 1853625 18446744073709551615 4194304 21451464 140736584440000 0 0 0 0 0 1098931967 0 0 0 17 10 0 0 0 0 0 21459200 21708072 39727104 140736584442556 140736584442907 140736584442907 140736584445884 0
/proc/25820/statm: 1861218 1853625 3466 4214 0 1850193 0
Current children cumulated CPU time: 1662.33 s
Current children cumulated vsize: 7444872 KiB
Current children cumulated memory: 7414500 KiB

[startup+1722.3 s]
/proc/loadavg: 1.10 1.11 1.10 2/930 6979
/proc/meminfo: memFree=67923788/131989204 swapFree=244112016/244398076
[pid=25820] ppid=25819 vsize=7571064 memory=7540548 CPUtime=1722.32 cores=0-39
/proc/25820/stat : 25820 (seapp) R 25819 25820 40453 34836 17777 4194304 2107352 0 0 0 171209 1023 0 0 20 0 1 0 477958338 7752769536 1885137 18446744073709551615 4194304 21451464 140736584440000 0 0 0 0 0 1098931967 0 0 0 17 10 0 0 0 0 0 21459200 21708072 39727104 140736584442556 140736584442907 140736584442907 140736584445884 0
/proc/25820/statm: 1892766 1885137 3466 4214 0 1881741 0
Current children cumulated CPU time: 1722.32 s
Current children cumulated vsize: 7571064 KiB
Current children cumulated memory: 7540548 KiB

[startup+1782.3 s]
/proc/loadavg: 1.07 1.11 1.10 2/929 7723
/proc/meminfo: memFree=67779800/131989204 swapFree=244112016/244398076
[pid=25820] ppid=25819 vsize=7711908 memory=7681596 CPUtime=1782.32 cores=0-39
/proc/25820/stat : 25820 (seapp) R 25819 25820 40453 34836 17777 4194304 2144862 0 0 0 177183 1049 0 0 20 0 1 0 477958338 7896993792 1920399 18446744073709551615 4194304 21451464 140736584440000 0 0 0 0 0 1098931967 0 0 0 17 10 0 0 0 0 0 21459200 21708072 39727104 140736584442556 140736584442907 140736584442907 140736584445884 0
/proc/25820/statm: 1927977 1920399 3466 4214 0 1916952 0
Current children cumulated CPU time: 1782.32 s
Current children cumulated vsize: 7711908 KiB
Current children cumulated memory: 7681596 KiB

[startup+1842.3 s]
/proc/loadavg: 1.02 1.08 1.09 2/931 8472
/proc/meminfo: memFree=67645224/131989204 swapFree=244112016/244398076
[pid=25820] ppid=25819 vsize=7850904 memory=7820416 CPUtime=1842.33 cores=0-39
/proc/25820/stat : 25820 (seapp) R 25819 25820 40453 34836 17777 4194304 2181585 0 0 0 183157 1076 0 0 20 0 1 0 477958338 8039325696 1955104 18446744073709551615 4194304 21451464 140736584440000 0 0 0 0 0 1098931967 0 0 0 17 10 0 0 0 0 0 21459200 21708072 39727104 140736584442556 140736584442907 140736584442907 140736584445884 0
/proc/25820/statm: 1962726 1955104 3466 4214 0 1951701 0
Current children cumulated CPU time: 1842.33 s
Current children cumulated vsize: 7850904 KiB
Current children cumulated memory: 7820416 KiB

[startup+1902.3 s]
/proc/loadavg: 1.06 1.08 1.09 2/931 9226
/proc/meminfo: memFree=67557316/131989204 swapFree=244112016/244398076
[pid=25820] ppid=25819 vsize=7935120 memory=7904764 CPUtime=1902.33 cores=0-39
/proc/25820/stat : 25820 (seapp) R 25819 25820 40453 34836 17777 4194304 2202955 0 0 0 189131 1102 0 0 20 0 1 0 477958338 8125562880 1976191 18446744073709551615 4194304 21451464 140736584440000 0 0 0 0 0 1098931967 0 0 0 17 10 0 0 0 0 0 21459200 21708072 39727104 140736584442556 140736584442907 140736584442907 140736584445884 0
/proc/25820/statm: 1983780 1976191 3466 4214 0 1972755 0
Current children cumulated CPU time: 1902.33 s
Current children cumulated vsize: 7935120 KiB
Current children cumulated memory: 7904764 KiB

[startup+1962.3 s]
/proc/loadavg: 1.16 1.10 1.09 2/931 9999
/proc/meminfo: memFree=67485232/131989204 swapFree=244112016/244398076
[pid=25820] ppid=25819 vsize=8008776 memory=7978328 CPUtime=1962.33 cores=0-39
/proc/25820/stat : 25820 (seapp) R 25819 25820 40453 34836 17777 4194304 2221584 0 0 0 195109 1124 0 0 20 0 1 0 477958338 8200986624 1994582 18446744073709551615 4194304 21451464 140736584440000 0 0 0 0 0 1098931967 0 0 0 17 10 0 0 0 0 0 21459200 21708072 39727104 140736584442556 140736584442907 140736584442907 140736584445884 0
/proc/25820/statm: 2002194 1994582 3466 4214 0 1991169 0
Current children cumulated CPU time: 1962.33 s
Current children cumulated vsize: 8008776 KiB
Current children cumulated memory: 7978328 KiB

[startup+2022.3 s]
/proc/loadavg: 1.12 1.11 1.09 3/933 10724
/proc/meminfo: memFree=67460580/131989204 swapFree=244112016/244398076
[pid=25820] ppid=25819 vsize=8027672 memory=7997332 CPUtime=2022.33 cores=0-39
/proc/25820/stat : 25820 (seapp) R 25819 25820 40453 34836 17777 4194304 2232647 0 0 0 201053 1180 0 0 20 0 1 0 477958338 8220336128 1999333 18446744073709551615 4194304 21451464 140736584440000 0 0 0 0 0 1098931967 0 0 0 17 10 0 0 0 0 0 21459200 21708072 39727104 140736584442556 140736584442907 140736584442907 140736584445884 0
/proc/25820/statm: 2006918 1999333 3466 4214 0 1995893 0
Current children cumulated CPU time: 2022.33 s
Current children cumulated vsize: 8027672 KiB
Current children cumulated memory: 7997332 KiB

[startup+2082.3 s]
/proc/loadavg: 1.08 1.10 1.09 2/935 11470
/proc/meminfo: memFree=67461624/131989204 swapFree=244112016/244398076
[pid=25820] ppid=25819 vsize=8027672 memory=7997332 CPUtime=2082.33 cores=0-39
/proc/25820/stat : 25820 (seapp) R 25819 25820 40453 34836 17777 4194304 2235825 0 0 0 207031 1202 0 0 20 0 1 0 477958338 8220336128 1999333 18446744073709551615 4194304 21451464 140736584440000 0 0 0 0 0 1098931967 0 0 0 17 10 0 0 0 0 0 21459200 21708072 39727104 140736584442556 140736584442907 140736584442907 140736584445884 0
/proc/25820/statm: 2006918 1999333 3466 4214 0 1995893 0
Current children cumulated CPU time: 2082.33 s
Current children cumulated vsize: 8027672 KiB
Current children cumulated memory: 7997332 KiB

[startup+2142.3 s]
/proc/loadavg: 1.03 1.08 1.08 3/934 12222
/proc/meminfo: memFree=67380572/131989204 swapFree=244112016/244398076
[pid=25820] ppid=25819 vsize=8107664 memory=8077176 CPUtime=2142.34 cores=0-39
/proc/25820/stat : 25820 (seapp) R 25819 25820 40453 34836 17777 4194304 2256975 0 0 0 213010 1224 0 0 20 0 1 0 477958338 8302247936 2019294 18446744073709551615 4194304 21451464 140736584440000 0 0 0 0 0 1098931967 0 0 0 17 10 0 0 0 0 0 21459200 21708072 39727104 140736584442556 140736584442907 140736584442907 140736584445884 0
/proc/25820/statm: 2026916 2019294 3466 4214 0 2015891 0
Current children cumulated CPU time: 2142.34 s
Current children cumulated vsize: 8107664 KiB
Current children cumulated memory: 8077176 KiB

[startup+2202.3 s]
/proc/loadavg: 1.01 1.06 1.08 2/936 12975
/proc/meminfo: memFree=67027696/131989204 swapFree=244112016/244398076
[pid=25820] ppid=25819 vsize=8457332 memory=8427112 CPUtime=2202.33 cores=0-39
/proc/25820/stat : 25820 (seapp) R 25819 25820 40453 34836 17777 4194304 2345156 0 0 0 218975 1258 0 0 20 0 1 0 477958338 8660307968 2106778 18446744073709551615 4194304 21451464 140736584440000 0 0 0 0 0 1098931967 0 0 0 17 10 0 0 0 0 0 21459200 21708072 39727104 140736584442556 140736584442907 140736584442907 140736584445884 0
/proc/25820/statm: 2114333 2106778 3466 4214 0 2103308 0
Current children cumulated CPU time: 2202.33 s
Current children cumulated vsize: 8457332 KiB
Current children cumulated memory: 8427112 KiB

[startup+2262.3 s]
/proc/loadavg: 1.63 1.21 1.13 2/936 13724
/proc/meminfo: memFree=66180220/131989204 swapFree=244112016/244398076
[pid=25820] ppid=25819 vsize=9301752 memory=9271364 CPUtime=2262.33 cores=0-39
/proc/25820/stat : 25820 (seapp) R 25819 25820 40453 34836 17777 4194304 2560806 0 0 0 224875 1358 0 0 20 0 1 0 477958338 9524994048 2317841 18446744073709551615 4194304 21451464 140736584440000 0 0 0 0 0 1098931967 0 0 0 17 10 0 0 0 0 0 21459200 21708072 39727104 140736584442556 140736584442907 140736584442907 140736584445884 0
/proc/25820/statm: 2325438 2317841 3466 4214 0 2314413 0
Current children cumulated CPU time: 2262.33 s
Current children cumulated vsize: 9301752 KiB
Current children cumulated memory: 9271364 KiB

[startup+2322.3 s]
/proc/loadavg: 1.35 1.21 1.13 2/933 14455
/proc/meminfo: memFree=66100380/131989204 swapFree=244112016/244398076
[pid=25820] ppid=25819 vsize=9386364 memory=9356032 CPUtime=2322.34 cores=0-39
/proc/25820/stat : 25820 (seapp) R 25819 25820 40453 34836 17777 4194304 2582055 0 0 0 230849 1385 0 0 20 0 1 0 477958338 9611636736 2339008 18446744073709551615 4194304 21451464 140736584440000 0 0 0 0 0 1098931967 0 0 0 17 10 0 0 0 0 0 21459200 21708072 39727104 140736584442556 140736584442907 140736584442907 140736584445884 0
/proc/25820/statm: 2346591 2339008 3466 4214 0 2335566 0
Current children cumulated CPU time: 2322.34 s
Current children cumulated vsize: 9386364 KiB
Current children cumulated memory: 9356032 KiB

[startup+2382.3 s]
/proc/loadavg: 1.13 1.17 1.12 2/931 15196
/proc/meminfo: memFree=65952964/131989204 swapFree=244112016/244398076
[pid=25820] ppid=25819 vsize=9536976 memory=9506436 CPUtime=2382.34 cores=0-39
/proc/25820/stat : 25820 (seapp) R 25819 25820 40453 34836 17777 4194304 2620228 0 0 0 236822 1412 0 0 20 0 1 0 477958338 9765863424 2376609 18446744073709551615 4194304 21451464 140736584440000 0 0 0 0 0 1098931967 0 0 0 17 10 0 0 0 0 0 21459200 21708072 39727104 140736584442556 140736584442907 140736584442907 140736584445884 0
/proc/25820/statm: 2384244 2376609 3466 4214 0 2373219 0
Current children cumulated CPU time: 2382.34 s
Current children cumulated vsize: 9536976 KiB
Current children cumulated memory: 9506436 KiB

[startup+2442.3 s]
/proc/loadavg: 1.04 1.14 1.11 2/931 15946
/proc/meminfo: memFree=65837824/131989204 swapFree=244112016/244398076
[pid=25820] ppid=25819 vsize=9649836 memory=9619596 CPUtime=2442.33 cores=0-39
/proc/25820/stat : 25820 (seapp) R 25819 25820 40453 34836 17777 4194304 2648563 0 0 0 242793 1440 0 0 20 0 1 0 477958338 9881432064 2404899 18446744073709551615 4194304 21451464 140736584440000 0 0 0 0 0 1098931967 0 0 0 17 10 0 0 0 0 0 21459200 21708072 39727104 140736584442556 140736584442907 140736584442907 140736584445884 0
/proc/25820/statm: 2412459 2404899 3466 4214 0 2401434 0
Current children cumulated CPU time: 2442.33 s
Current children cumulated vsize: 9649836 KiB
Current children cumulated memory: 9619596 KiB

[startup+2502.3 s]
/proc/loadavg: 1.05 1.12 1.10 2/931 16692
/proc/meminfo: memFree=65715704/131989204 swapFree=244112016/244398076
[pid=25820] ppid=25819 vsize=9768900 memory=9738604 CPUtime=2502.34 cores=0-39
/proc/25820/stat : 25820 (seapp) R 25819 25820 40453 34836 17777 4194304 2678539 0 0 0 248764 1470 0 0 20 0 1 0 477958338 10003353600 2434651 18446744073709551615 4194304 21451464 140736584440000 0 0 0 0 0 1098931967 0 0 0 17 10 0 0 0 0 0 21459200 21708072 39727104 140736584442556 140736584442907 140736584442907 140736584445884 0
/proc/25820/statm: 2442225 2434651 3466 4214 0 2431200 0
Current children cumulated CPU time: 2502.34 s
Current children cumulated vsize: 9768900 KiB
Current children cumulated memory: 9738604 KiB

[startup+2562.3 s]
/proc/loadavg: 1.12 1.13 1.10 2/931 17412
/proc/meminfo: memFree=65694364/131989204 swapFree=244112016/244398076
[pid=25820] ppid=25819 vsize=9792528 memory=9762276 CPUtime=2562.34 cores=0-39
/proc/25820/stat : 25820 (seapp) R 25819 25820 40453 34836 17777 4194304 2684660 0 0 0 254738 1496 0 0 20 0 1 0 477958338 10027548672 2440569 18446744073709551615 4194304 21451464 140736584440000 0 0 0 0 0 1098931967 0 0 0 17 10 0 0 0 0 0 21459200 21708072 39727104 140736584442556 140736584442907 140736584442907 140736584445884 0
/proc/25820/statm: 2448132 2440569 3466 4214 0 2437107 0
Current children cumulated CPU time: 2562.34 s
Current children cumulated vsize: 9792528 KiB
Current children cumulated memory: 9762276 KiB

[startup+2622.3 s]
/proc/loadavg: 1.22 1.15 1.11 2/930 18155
/proc/meminfo: memFree=65560972/131989204 swapFree=244112016/244398076
[pid=25820] ppid=25819 vsize=9925980 memory=9895660 CPUtime=2622.34 cores=0-39
/proc/25820/stat : 25820 (seapp) R 25819 25820 40453 34836 17777 4194304 2719897 0 0 0 260702 1532 0 0 20 0 1 0 477958338 10164203520 2473915 18446744073709551615 4194304 21451464 140736584440000 0 0 0 0 0 1098931967 0 0 0 17 10 0 0 0 0 0 21459200 21708072 39727104 140736584442556 140736584442907 140736584442907 140736584445884 0
/proc/25820/statm: 2481495 2473915 3466 4214 0 2470470 0
Current children cumulated CPU time: 2622.34 s
Current children cumulated vsize: 9925980 KiB
Current children cumulated memory: 9895660 KiB

[startup+2682.3 s]
/proc/loadavg: 1.08 1.12 1.10 2/931 18894
/proc/meminfo: memFree=65456072/131989204 swapFree=244112016/244398076
[pid=25820] ppid=25819 vsize=10029204 memory=9998828 CPUtime=2682.34 cores=0-39
/proc/25820/stat : 25820 (seapp) R 25819 25820 40453 34836 17777 4194304 2746675 0 0 0 266674 1560 0 0 20 0 1 0 477958338 10269904896 2499707 18446744073709551615 4194304 21451464 140736584440000 0 0 0 0 0 1098931967 0 0 0 17 10 0 0 0 0 0 21459200 21708072 39727104 140736584442556 140736584442907 140736584442907 140736584445884 0
/proc/25820/statm: 2507301 2499707 3466 4214 0 2496276 0
Current children cumulated CPU time: 2682.34 s
Current children cumulated vsize: 10029204 KiB
Current children cumulated memory: 9998828 KiB

[startup+2742.3 s]
/proc/loadavg: 1.03 1.10 1.09 2/929 19633
/proc/meminfo: memFree=65418752/131989204 swapFree=244112016/244398076
[pid=25820] ppid=25819 vsize=10068408 memory=10038032 CPUtime=2742.34 cores=0-39
/proc/25820/stat : 25820 (seapp) R 25819 25820 40453 34836 17777 4194304 2756491 0 0 0 272646 1588 0 0 20 0 1 0 477958338 10310049792 2509508 18446744073709551615 4194304 21451464 140736584440000 0 0 0 0 0 1098931967 0 0 0 17 10 0 0 0 0 0 21459200 21708072 39727104 140736584442556 140736584442907 140736584442907 140736584445884 0
/proc/25820/statm: 2517102 2509508 3466 4214 0 2506077 0
Current children cumulated CPU time: 2742.34 s
Current children cumulated vsize: 10068408 KiB
Current children cumulated memory: 10038032 KiB

[startup+2802.3 s]
/proc/loadavg: 1.01 1.08 1.08 3/931 20352
/proc/meminfo: memFree=65390312/131989204 swapFree=244112016/244398076
[pid=25820] ppid=25819 vsize=10097580 memory=10067248 CPUtime=2802.35 cores=0-39
/proc/25820/stat : 25820 (seapp) R 25819 25820 40453 34836 17777 4194304 2763890 0 0 0 278620 1615 0 0 20 0 1 0 477958338 10339921920 2516812 18446744073709551615 4194304 21451464 140736584440000 0 0 0 0 0 1098931967 0 0 0 17 10 0 0 0 0 0 21459200 21708072 39727104 140736584442556 140736584442907 140736584442907 140736584445884 0
/proc/25820/statm: 2524395 2516812 3466 4214 0 2513370 0
Current children cumulated CPU time: 2802.35 s
Current children cumulated vsize: 10097580 KiB
Current children cumulated memory: 10067248 KiB

[startup+2862.3 s]
/proc/loadavg: 1.14 1.09 1.09 2/933 21100
/proc/meminfo: memFree=65350472/131989204 swapFree=244112016/244398076
[pid=25820] ppid=25819 vsize=10135728 memory=10105432 CPUtime=2862.35 cores=0-39
/proc/25820/stat : 25820 (seapp) R 25819 25820 40453 34836 17777 4194304 2773703 0 0 0 284595 1640 0 0 20 0 1 0 477958338 10378985472 2526358 18446744073709551615 4194304 21451464 140736584440000 0 0 0 0 0 1098931967 0 0 0 17 10 0 0 0 0 0 21459200 21708072 39727104 140736584442556 140736584442907 140736584442907 140736584445884 0
/proc/25820/statm: 2533932 2526358 3466 4214 0 2522907 0
Current children cumulated CPU time: 2862.35 s
Current children cumulated vsize: 10135728 KiB
Current children cumulated memory: 10105432 KiB

[startup+2922.3 s]
/proc/loadavg: 1.44 1.17 1.11 2/937 21853
/proc/meminfo: memFree=65301332/131989204 swapFree=244112016/244398076
[pid=25820] ppid=25819 vsize=10182324 memory=10152024 CPUtime=2922.35 cores=0-39
/proc/25820/stat : 25820 (seapp) R 25819 25820 40453 34836 17777 4194304 2785860 0 0 0 290571 1664 0 0 20 0 1 0 477958338 10426699776 2538006 18446744073709551615 4194304 21451464 140736584440000 0 0 0 0 0 1098931967 0 0 0 17 10 0 0 0 0 0 21459200 21708072 39727104 140736584442556 140736584442907 140736584442907 140736584445884 0
/proc/25820/statm: 2545581 2538006 3466 4214 0 2534556 0
Current children cumulated CPU time: 2922.35 s
Current children cumulated vsize: 10182324 KiB
Current children cumulated memory: 10152024 KiB

[startup+2982.3 s]
/proc/loadavg: 1.16 1.14 1.10 2/932 22608
/proc/meminfo: memFree=65265096/131989204 swapFree=244112016/244398076
[pid=25820] ppid=25819 vsize=10218624 memory=10188184 CPUtime=2982.34 cores=0-39
/proc/25820/stat : 25820 (seapp) R 25819 25820 40453 34836 17777 4194304 2795248 0 0 0 296544 1690 0 0 20 0 1 0 477958338 10463870976 2547046 18446744073709551615 4194304 21451464 140736584440000 0 0 0 0 0 1098931967 0 0 0 17 10 0 0 0 0 0 21459200 21708072 39727104 140736584442556 140736584442907 140736584442907 140736584445884 0
/proc/25820/statm: 2554656 2547046 3466 4214 0 2543631 0
Current children cumulated CPU time: 2982.34 s
Current children cumulated vsize: 10218624 KiB
Current children cumulated memory: 10188184 KiB

[startup+3042.3 s]
/proc/loadavg: 1.06 1.11 1.09 2/930 23389
/proc/meminfo: memFree=65209660/131989204 swapFree=244112016/244398076
[pid=25820] ppid=25819 vsize=10275780 memory=10245536 CPUtime=3042.34 cores=0-39
/proc/25820/stat : 25820 (seapp) R 25819 25820 40453 34836 17777 4194304 2810329 0 0 0 302520 1714 0 0 20 0 1 0 477958338 10522398720 2561384 18446744073709551615 4194304 21451464 140736584440000 0 0 0 0 0 1098931967 0 0 0 17 10 0 0 0 0 0 21459200 21708072 39727104 140736584442556 140736584442907 140736584442907 140736584445884 0
/proc/25820/statm: 2568945 2561384 3466 4214 0 2557920 0
Current children cumulated CPU time: 3042.34 s
Current children cumulated vsize: 10275780 KiB
Current children cumulated memory: 10245536 KiB

[startup+3102.3 s]
/proc/loadavg: 1.07 1.10 1.09 2/935 24149
/proc/meminfo: memFree=65137604/131989204 swapFree=244112016/244398076
[pid=25820] ppid=25819 vsize=10350096 memory=10319636 CPUtime=3102.35 cores=0-39
/proc/25820/stat : 25820 (seapp) R 25819 25820 40453 34836 17777 4194304 2829640 0 0 0 308494 1741 0 0 20 0 1 0 477958338 10598498304 2579909 18446744073709551615 4194304 21451464 140736584440000 0 0 0 0 0 1098931967 0 0 0 17 10 0 0 0 0 0 21459200 21708072 39727104 140736584442556 140736584442907 140736584442907 140736584445884 0
/proc/25820/statm: 2587524 2579909 3466 4214 0 2576499 0
Current children cumulated CPU time: 3102.35 s
Current children cumulated vsize: 10350096 KiB
Current children cumulated memory: 10319636 KiB

[startup+3162.3 s]
/proc/loadavg: 1.02 1.08 1.08 2/935 24907
/proc/meminfo: memFree=65091008/131989204 swapFree=244112016/244398076
[pid=25820] ppid=25819 vsize=10392336 memory=10362036 CPUtime=3162.35 cores=0-39
/proc/25820/stat : 25820 (seapp) R 25819 25820 40453 34836 17777 4194304 2840556 0 0 0 314469 1766 0 0 20 0 1 0 477958338 10641752064 2590509 18446744073709551615 4194304 21451464 140736584440000 0 0 0 0 0 1098931967 0 0 0 17 10 0 0 0 0 0 21459200 21708072 39727104 140736584442556 140736584442907 140736584442907 140736584445884 0
/proc/25820/statm: 2598084 2590509 3466 4214 0 2587059 0
Current children cumulated CPU time: 3162.35 s
Current children cumulated vsize: 10392336 KiB
Current children cumulated memory: 10362036 KiB

[startup+3222.3 s]
/proc/loadavg: 1.01 1.06 1.08 2/932 25655
/proc/meminfo: memFree=65048524/131989204 swapFree=244112016/244398076
[pid=25820] ppid=25819 vsize=10437480 memory=10407192 CPUtime=3222.35 cores=0-39
/proc/25820/stat : 25820 (seapp) R 25819 25820 40453 34836 17777 4194304 2852563 0 0 0 320435 1800 0 0 20 0 1 0 477958338 10687979520 2601798 18446744073709551615 4194304 21451464 140736584440000 0 0 0 0 0 1098931967 0 0 0 17 10 0 0 0 0 0 21459200 21708072 39727104 140736584442556 140736584442907 140736584442907 140736584445884 0
/proc/25820/statm: 2609370 2601798 3466 4214 0 2598345 0
Current children cumulated CPU time: 3222.35 s
Current children cumulated vsize: 10437480 KiB
Current children cumulated memory: 10407192 KiB

[startup+3282.3 s]
/proc/loadavg: 1.22 1.14 1.10 3/934 26392
/proc/meminfo: memFree=64965848/131989204 swapFree=244112016/244398076
[pid=25820] ppid=25819 vsize=10516680 memory=10486272 CPUtime=3282.36 cores=0-39
/proc/25820/stat : 25820 (seapp) R 25819 25820 40453 34836 17777 4194304 2872927 0 0 0 326408 1828 0 0 20 0 1 0 477958338 10769080320 2621568 18446744073709551615 4194304 21451464 140736584440000 0 0 0 0 0 1098931967 0 0 0 17 10 0 0 0 0 0 21459200 21708072 39727104 140736584442556 140736584442907 140736584442907 140736584445884 0
/proc/25820/statm: 2629170 2621568 3466 4214 0 2618145 0
Current children cumulated CPU time: 3282.36 s
Current children cumulated vsize: 10516680 KiB
Current children cumulated memory: 10486272 KiB

[startup+3342.3 s]
/proc/loadavg: 1.08 1.11 1.09 2/936 27137
/proc/meminfo: memFree=64882732/131989204 swapFree=244112016/244398076
[pid=25820] ppid=25819 vsize=10598124 memory=10567548 CPUtime=3342.36 cores=0-39
/proc/25820/stat : 25820 (seapp) R 25819 25820 40453 34836 17777 4194304 2894338 0 0 0 332371 1865 0 0 20 0 1 0 477958338 10852478976 2641887 18446744073709551615 4194304 21451464 140736584440000 0 0 0 0 0 1098931967 0 0 0 17 10 0 0 0 0 0 21459200 21708072 39727104 140736584442556 140736584442907 140736584442907 140736584445884 0
/proc/25820/statm: 2649531 2641887 3466 4214 0 2638506 0
Current children cumulated CPU time: 3342.36 s
Current children cumulated vsize: 10598124 KiB
Current children cumulated memory: 10567548 KiB

[startup+3402.3 s]
/proc/loadavg: 1.03 1.09 1.08 2/933 27891
/proc/meminfo: memFree=64867680/131989204 swapFree=244112016/244398076
[pid=25820] ppid=25819 vsize=10616868 memory=10586504 CPUtime=3402.35 cores=0-39
/proc/25820/stat : 25820 (seapp) R 25819 25820 40453 34836 17777 4194304 2899518 0 0 0 338348 1887 0 0 20 0 1 0 477958338 10871672832 2646626 18446744073709551615 4194304 21451464 140736584440000 0 0 0 0 0 1098931967 0 0 0 17 10 0 0 0 0 0 21459200 21708072 39727104 140736584442556 140736584442907 140736584442907 140736584445884 0
/proc/25820/statm: 2654217 2646626 3466 4214 0 2643192 0
Current children cumulated CPU time: 3402.35 s
Current children cumulated vsize: 10616868 KiB
Current children cumulated memory: 10586504 KiB

[startup+3462.3 s]
/proc/loadavg: 1.06 1.08 1.08 2/935 28635
/proc/meminfo: memFree=64829224/131989204 swapFree=244112016/244398076
[pid=25820] ppid=25819 vsize=10653168 memory=10622704 CPUtime=3462.35 cores=0-39
/proc/25820/stat : 25820 (seapp) R 25819 25820 40453 34836 17777 4194304 2910168 0 0 0 344318 1917 0 0 20 0 1 0 477958338 10908844032 2655676 18446744073709551615 4194304 21451464 140736584440000 0 0 0 0 0 1098931967 0 0 0 17 10 0 0 0 0 0 21459200 21708072 39727104 140736584442556 140736584442907 140736584442907 140736584445884 0
/proc/25820/statm: 2663292 2655676 3466 4214 0 2652267 0
Current children cumulated CPU time: 3462.35 s
Current children cumulated vsize: 10653168 KiB
Current children cumulated memory: 10622704 KiB

[startup+3522.3 s]
/proc/loadavg: 1.40 1.19 1.12 2/935 29606
/proc/meminfo: memFree=64798604/131989204 swapFree=244112016/244398076
[pid=25820] ppid=25819 vsize=10687620 memory=10657140 CPUtime=3522.36 cores=0-39
/proc/25820/stat : 25820 (seapp) R 25819 25820 40453 34836 17777 4194304 2918996 0 0 0 350293 1943 0 0 20 0 1 0 477958338 10944122880 2664285 18446744073709551615 4194304 21451464 140736584440000 0 0 0 0 0 1098931967 0 0 0 17 10 0 0 0 0 0 21459200 21708072 39727104 140736584442556 140736584442907 140736584442907 140736584445884 0
/proc/25820/statm: 2671905 2664285 3466 4214 0 2660880 0
Current children cumulated CPU time: 3522.36 s
Current children cumulated vsize: 10687620 KiB
Current children cumulated memory: 10657140 KiB

[startup+3582.3 s]
/proc/loadavg: 1.31 1.21 1.13 2/935 30331
/proc/meminfo: memFree=64747420/131989204 swapFree=244112016/244398076
[pid=25820] ppid=25819 vsize=10736724 memory=10706288 CPUtime=3582.35 cores=0-39
/proc/25820/stat : 25820 (seapp) R 25819 25820 40453 34836 17777 4194304 2934445 0 0 0 356259 1976 0 0 20 0 1 0 477958338 10994405376 2676572 18446744073709551615 4194304 21451464 140736584440000 0 0 0 0 0 1098931967 0 0 0 17 10 0 0 0 0 0 21459200 21708072 39727104 140736584442556 140736584442907 140736584442907 140736584445884 0
/proc/25820/statm: 2684181 2676572 3466 4214 0 2673156 0
Current children cumulated CPU time: 3582.35 s
Current children cumulated vsize: 10736724 KiB
Current children cumulated memory: 10706288 KiB

[startup+3642.3 s]
/proc/loadavg: 1.15 1.18 1.12 2/937 31098
/proc/meminfo: memFree=64664160/131989204 swapFree=244112016/244398076
[pid=25820] ppid=25819 vsize=10823580 memory=10793056 CPUtime=3642.36 cores=0-39
/proc/25820/stat : 25820 (seapp) R 25819 25820 40453 34836 17777 4194304 2957634 0 0 0 362234 2002 0 0 20 0 1 0 477958338 11083345920 2698264 18446744073709551615 4194304 21451464 140736584440000 0 0 0 0 0 1098931967 0 0 0 17 10 0 0 0 0 0 21459200 21708072 39727104 140736584442556 140736584442907 140736584442907 140736584445884 0
/proc/25820/statm: 2705895 2698264 3466 4214 0 2694870 0
Current children cumulated CPU time: 3642.36 s
Current children cumulated vsize: 10823580 KiB
Current children cumulated memory: 10793056 KiB

[startup+3702.3 s]
/proc/loadavg: 1.05 1.15 1.11 2/935 31873
/proc/meminfo: memFree=64547540/131989204 swapFree=244112016/244398076
[pid=25820] ppid=25819 vsize=10936440 memory=10906096 CPUtime=3702.36 cores=0-39
/proc/25820/stat : 25820 (seapp) R 25819 25820 40453 34836 17777 4194304 2986482 0 0 0 368211 2025 0 0 20 0 1 0 477958338 11198914560 2726524 18446744073709551615 4194304 21451464 140736584440000 0 0 0 0 0 1098931967 0 0 0 17 10 0 0 0 0 0 21459200 21708072 39727104 140736584442556 140736584442907 140736584442907 140736584445884 0
/proc/25820/statm: 2734110 2726524 3466 4214 0 2723085 0
Current children cumulated CPU time: 3702.36 s
Current children cumulated vsize: 10936440 KiB
Current children cumulated memory: 10906096 KiB

[startup+3762.3 s]
/proc/loadavg: 1.02 1.12 1.10 2/934 32613
/proc/meminfo: memFree=64488120/131989204 swapFree=244112016/244398076
[pid=25820] ppid=25819 vsize=10995312 memory=10964976 CPUtime=3762.36 cores=0-39
/proc/25820/stat : 25820 (seapp) R 25819 25820 40453 34836 17777 4194304 3002061 0 0 0 374188 2048 0 0 20 0 1 0 477958338 11259199488 2741244 18446744073709551615 4194304 21451464 140736584440000 0 0 0 0 0 1098931967 0 0 0 17 10 0 0 0 0 0 21459200 21708072 39727104 140736584442556 140736584442907 140736584442907 140736584445884 0
/proc/25820/statm: 2748828 2741244 3466 4214 0 2737803 0
Current children cumulated CPU time: 3762.36 s
Current children cumulated vsize: 10995312 KiB
Current children cumulated memory: 10964976 KiB

[startup+3822.3 s]
/proc/loadavg: 1.00 1.09 1.09 2/932 33340
/proc/meminfo: memFree=64416416/131989204 swapFree=244112016/244398076
[pid=25820] ppid=25819 vsize=11067120 memory=11036660 CPUtime=3822.37 cores=0-39
/proc/25820/stat : 25820 (seapp) R 25819 25820 40453 34836 17777 4194304 3020327 0 0 0 380161 2076 0 0 20 0 1 0 477958338 11332730880 2759165 18446744073709551615 4194304 21451464 140736584440000 0 0 0 0 0 1098931967 0 0 0 17 10 0 0 0 0 0 21459200 21708072 39727104 140736584442556 140736584442907 140736584442907 140736584445884 0
/proc/25820/statm: 2766780 2759165 3466 4214 0 2755755 0
Current children cumulated CPU time: 3822.37 s
Current children cumulated vsize: 11067120 KiB
Current children cumulated memory: 11036660 KiB

[startup+3882.3 s]
/proc/loadavg: 1.16 1.12 1.10 2/932 34088
/proc/meminfo: memFree=64333208/131989204 swapFree=244112016/244398076
[pid=25820] ppid=25819 vsize=11153184 memory=11122848 CPUtime=3882.37 cores=0-39
/proc/25820/stat : 25820 (seapp) R 25819 25820 40453 34836 17777 4194304 3043120 0 0 0 386134 2103 0 0 20 0 1 0 477958338 11420860416 2780712 18446744073709551615 4194304 21451464 140736584440000 0 0 0 0 0 1098931967 0 0 0 17 10 0 0 0 0 0 21459200 21708072 39727104 140736584442556 140736584442907 140736584442907 140736584445884 0
/proc/25820/statm: 2788296 2780712 3466 4214 0 2777271 0
Current children cumulated CPU time: 3882.37 s
Current children cumulated vsize: 11153184 KiB
Current children cumulated memory: 11122848 KiB

[startup+3942.3 s]
/proc/loadavg: 1.06 1.10 1.09 2/931 34842
/proc/meminfo: memFree=64234344/131989204 swapFree=244112016/244398076
[pid=25820] ppid=25819 vsize=11245716 memory=11215268 CPUtime=3942.36 cores=0-39
/proc/25820/stat : 25820 (seapp) R 25819 25820 40453 34836 17777 4194304 3066502 0 0 0 392108 2128 0 0 20 0 1 0 477958338 11515613184 2803817 18446744073709551615 4194304 21451464 140736584440000 0 0 0 0 0 1098931967 0 0 0 17 10 0 0 0 0 0 21459200 21708072 39727104 140736584442556 140736584442907 140736584442907 140736584445884 0
/proc/25820/statm: 2811429 2803817 3466 4214 0 2800404 0
Current children cumulated CPU time: 3942.36 s
Current children cumulated vsize: 11245716 KiB
Current children cumulated memory: 11215268 KiB

[startup+4002.3 s]
/proc/loadavg: 1.02 1.08 1.08 2/935 35604
/proc/meminfo: memFree=64123932/131989204 swapFree=244112016/244398076
[pid=25820] ppid=25819 vsize=11354880 memory=11324556 CPUtime=4002.36 cores=0-39
/proc/25820/stat : 25820 (seapp) R 25819 25820 40453 34836 17777 4194304 3094258 0 0 0 398077 2159 0 0 20 0 1 0 477958338 11627397120 2831139 18446744073709551615 4194304 21451464 140736584440000 0 0 0 0 0 1098931967 0 0 0 17 10 0 0 0 0 0 21459200 21708072 39727104 140736584442556 140736584442907 140736584442907 140736584445884 0
/proc/25820/statm: 2838720 2831139 3466 4214 0 2827695 0
Current children cumulated CPU time: 4002.36 s
Current children cumulated vsize: 11354880 KiB
Current children cumulated memory: 11324556 KiB

[startup+4062.3 s]
/proc/loadavg: 1.01 1.06 1.08 2/935 36354
/proc/meminfo: memFree=64099416/131989204 swapFree=244112016/244398076
[pid=25820] ppid=25819 vsize=11382336 memory=11351968 CPUtime=4062.36 cores=0-39
/proc/25820/stat : 25820 (seapp) R 25819 25820 40453 34836 17777 4194304 3121152 0 0 0 404044 2192 0 0 20 0 1 0 477958338 11655512064 2837992 18446744073709551615 4194304 21451464 140736584440000 0 0 0 0 0 1098931967 0 0 0 17 10 0 0 0 0 0 21459200 21708072 39727104 140736584442556 140736584442907 140736584442907 140736584445884 0
/proc/25820/statm: 2845584 2837992 3466 4214 0 2834559 0
Current children cumulated CPU time: 4062.36 s
Current children cumulated vsize: 11382336 KiB
Current children cumulated memory: 11351968 KiB

[startup+4122.3 s]
/proc/loadavg: 1.05 1.06 1.08 2/932 37100
/proc/meminfo: memFree=64055076/131989204 swapFree=244112016/244398076
[pid=25820] ppid=25819 vsize=11425104 memory=11394724 CPUtime=4122.37 cores=0-39
/proc/25820/stat : 25820 (seapp) R 25819 25820 40453 34836 17777 4194304 3131895 0 0 0 410013 2224 0 0 20 0 1 0 477958338 11699306496 2848681 18446744073709551615 4194304 21451464 140736584440000 0 0 0 0 0 1098931967 0 0 0 17 10 0 0 0 0 0 21459200 21708072 39727104 140736584442556 140736584442907 140736584442907 140736584445884 0
/proc/25820/statm: 2856276 2848681 3466 4214 0 2845251 0
Current children cumulated CPU time: 4122.37 s
Current children cumulated vsize: 11425104 KiB
Current children cumulated memory: 11394724 KiB

[startup+4182.3 s]
/proc/loadavg: 1.29 1.11 1.09 2/933 37856
/proc/meminfo: memFree=64013628/131989204 swapFree=244112016/244398076
[pid=25820] ppid=25819 vsize=11468136 memory=11437908 CPUtime=4182.37 cores=0-39
/proc/25820/stat : 25820 (seapp) R 25819 25820 40453 34836 17777 4194304 3143296 0 0 0 415985 2252 0 0 20 0 1 0 477958338 11743371264 2859477 18446744073709551615 4194304 21451464 140736584440000 0 0 0 0 0 1098931967 0 0 0 17 10 0 0 0 0 0 21459200 21708072 39727104 140736584442556 140736584442907 140736584442907 140736584445884 0
/proc/25820/statm: 2867034 2859477 3466 4214 0 2856009 0
Current children cumulated CPU time: 4182.37 s
Current children cumulated vsize: 11468136 KiB
Current children cumulated memory: 11437908 KiB

[startup+4242.3 s]
/proc/loadavg: 1.18 1.11 1.09 2/932 38598
/proc/meminfo: memFree=63956904/131989204 swapFree=244112016/244398076
[pid=25820] ppid=25819 vsize=11526216 memory=11495860 CPUtime=4242.37 cores=0-39
/proc/25820/stat : 25820 (seapp) R 25819 25820 40453 34836 17777 4194304 3158109 0 0 0 421958 2279 0 0 20 0 1 0 477958338 11802845184 2873965 18446744073709551615 4194304 21451464 140736584440000 0 0 0 0 0 1098931967 0 0 0 17 10 0 0 0 0 0 21459200 21708072 39727104 140736584442556 140736584442907 140736584442907 140736584445884 0
/proc/25820/statm: 2881554 2873965 3466 4214 0 2870529 0
Current children cumulated CPU time: 4242.37 s
Current children cumulated vsize: 11526216 KiB
Current children cumulated memory: 11495860 KiB

[startup+4302.3 s]
/proc/loadavg: 1.10 1.10 1.09 2/932 39336
/proc/meminfo: memFree=63893456/131989204 swapFree=244112016/244398076
[pid=25820] ppid=25819 vsize=11586012 memory=11555632 CPUtime=4302.38 cores=0-39
/proc/25820/stat : 25820 (seapp) R 25819 25820 40453 34836 17777 4194304 3173799 0 0 0 427930 2308 0 0 20 0 1 0 477958338 11864076288 2888908 18446744073709551615 4194304 21451464 140736584440000 0 0 0 0 0 1098931967 0 0 0 17 10 0 0 0 0 0 21459200 21708072 39727104 140736584442556 140736584442907 140736584442907 140736584445884 0
/proc/25820/statm: 2896503 2888908 3466 4214 0 2885478 0
Current children cumulated CPU time: 4302.38 s
Current children cumulated vsize: 11586012 KiB
Current children cumulated memory: 11555632 KiB

[startup+4362.3 s]
/proc/loadavg: 1.07 1.09 1.09 2/933 40103
/proc/meminfo: memFree=63837236/131989204 swapFree=244112016/244398076
[pid=25820] ppid=25819 vsize=11644488 memory=11614164 CPUtime=4362.37 cores=0-39
/proc/25820/stat : 25820 (seapp) R 25819 25820 40453 34836 17777 4194304 3189581 0 0 0 433900 2337 0 0 20 0 1 0 477958338 11923955712 2903541 18446744073709551615 4194304 21451464 140736584440000 0 0 0 0 0 1098931967 0 0 0 17 10 0 0 0 0 0 21459200 21708072 39727104 140736584442556 140736584442907 140736584442907 140736584445884 0
/proc/25820/statm: 2911122 2903541 3466 4214 0 2900097 0
Current children cumulated CPU time: 4362.37 s
Current children cumulated vsize: 11644488 KiB
Current children cumulated memory: 11614164 KiB

[startup+4422.3 s]
/proc/loadavg: 1.02 1.07 1.08 2/931 40844
/proc/meminfo: memFree=63790700/131989204 swapFree=244112016/244398076
[pid=25820] ppid=25819 vsize=11692536 memory=11662220 CPUtime=4422.38 cores=0-39
/proc/25820/stat : 25820 (seapp) R 25819 25820 40453 34836 17777 4194304 3202589 0 0 0 439879 2359 0 0 20 0 1 0 477958338 11973156864 2915555 18446744073709551615 4194304 21451464 140736584440000 0 0 0 0 0 1098931967 0 0 0 17 10 0 0 0 0 0 21459200 21708072 39727104 140736584442556 140736584442907 140736584442907 140736584445884 0
/proc/25820/statm: 2923134 2915555 3466 4214 0 2912109 0
Current children cumulated CPU time: 4422.38 s
Current children cumulated vsize: 11692536 KiB
Current children cumulated memory: 11662220 KiB

[startup+4482.3 s]
/proc/loadavg: 1.01 1.06 1.08 2/934 1008
/proc/meminfo: memFree=63697712/131989204 swapFree=244112016/244398076
[pid=25820] ppid=25819 vsize=11781768 memory=11751444 CPUtime=4482.37 cores=0-39
/proc/25820/stat : 25820 (seapp) R 25819 25820 40453 34836 17777 4194304 3225475 0 0 0 445849 2388 0 0 20 0 1 0 477958338 12064530432 2937861 18446744073709551615 4194304 21451464 140736584440000 0 0 0 0 0 1098931967 0 0 0 17 10 0 0 0 0 0 21459200 21708072 39727104 140736584442556 140736584442907 140736584442907 140736584445884 0
/proc/25820/statm: 2945442 2937861 3466 4214 0 2934417 0
Current children cumulated CPU time: 4482.37 s
Current children cumulated vsize: 11781768 KiB
Current children cumulated memory: 11751444 KiB

[startup+4542.3 s]
/proc/loadavg: 1.11 1.09 1.09 2/932 1781
/proc/meminfo: memFree=63672908/131989204 swapFree=244112016/244398076
[pid=25820] ppid=25819 vsize=11806188 memory=11775960 CPUtime=4542.38 cores=0-39
/proc/25820/stat : 25820 (seapp) R 25819 25820 40453 34836 17777 4194304 3231803 0 0 0 451825 2413 0 0 20 0 1 0 477958338 12089536512 2943990 18446744073709551615 4194304 21451464 140736584440000 0 0 0 0 0 1098931967 0 0 0 17 10 0 0 0 0 0 21459200 21708072 39727104 140736584442556 140736584442907 140736584442907 140736584445884 0
/proc/25820/statm: 2951547 2943990 3466 4214 0 2940522 0
Current children cumulated CPU time: 4542.38 s
Current children cumulated vsize: 11806188 KiB
Current children cumulated memory: 11775960 KiB

[startup+4602.3 s]
/proc/loadavg: 1.09 1.08 1.09 2/931 2542
/proc/meminfo: memFree=63637268/131989204 swapFree=244112016/244398076
[pid=25820] ppid=25819 vsize=11844732 memory=11814396 CPUtime=4602.37 cores=0-39
/proc/25820/stat : 25820 (seapp) R 25819 25820 40453 34836 17777 4194304 3241996 0 0 0 457797 2440 0 0 20 0 1 0 477958338 12129005568 2953599 18446744073709551615 4194304 21451464 140736584440000 0 0 0 0 0 1098931967 0 0 0 17 10 0 0 0 0 0 21459200 21708072 39727104 140736584442556 140736584442907 140736584442907 140736584445884 0
/proc/25820/statm: 2961183 2953599 3466 4214 0 2950158 0
Current children cumulated CPU time: 4602.37 s
Current children cumulated vsize: 11844732 KiB
Current children cumulated memory: 11814396 KiB

[startup+4662.3 s]
/proc/loadavg: 1.03 1.07 1.08 2/931 3501
/proc/meminfo: memFree=63559472/131989204 swapFree=244112016/244398076
[pid=25820] ppid=25819 vsize=11920632 memory=11890284 CPUtime=4662.38 cores=0-39
/proc/25820/stat : 25820 (seapp) R 25819 25820 40453 34836 17777 4194304 3261454 0 0 0 463768 2470 0 0 20 0 1 0 477958338 12206727168 2972571 18446744073709551615 4194304 21451464 140736584440000 0 0 0 0 0 1098931967 0 0 0 17 10 0 0 0 0 0 21459200 21708072 39727104 140736584442556 140736584442907 140736584442907 140736584445884 0
/proc/25820/statm: 2980158 2972571 3466 4214 0 2969133 0
Current children cumulated CPU time: 4662.38 s
Current children cumulated vsize: 11920632 KiB
Current children cumulated memory: 11890284 KiB

[startup+4722.3 s]
/proc/loadavg: 1.12 1.08 1.09 2/935 4254
/proc/meminfo: memFree=63458168/131989204 swapFree=244112016/244398076
[pid=25820] ppid=25819 vsize=12021216 memory=11990728 CPUtime=4722.38 cores=0-39
/proc/25820/stat : 25820 (seapp) R 25819 25820 40453 34836 17777 4194304 3288406 0 0 0 469737 2501 0 0 20 0 1 0 477958338 12309725184 2997682 18446744073709551615 4194304 21451464 140736584440000 0 0 0 0 0 1098931967 0 0 0 17 10 0 0 0 0 0 21459200 21708072 39727104 140736584442556 140736584442907 140736584442907 140736584445884 0
/proc/25820/statm: 3005304 2997682 3466 4214 0 2994279 0
Current children cumulated CPU time: 4722.38 s
Current children cumulated vsize: 12021216 KiB
Current children cumulated memory: 11990728 KiB

[startup+4782.3 s]
/proc/loadavg: 1.38 1.17 1.12 2/935 5011
/proc/meminfo: memFree=63423324/131989204 swapFree=244112016/244398076
[pid=25820] ppid=25819 vsize=12052104 memory=12021852 CPUtime=4782.38 cores=0-39
/proc/25820/stat : 25820 (seapp) R 25819 25820 40453 34836 17777 4194304 3297404 0 0 0 475712 2526 0 0 20 0 1 0 477958338 12341354496 3005463 18446744073709551615 4194304 21451464 140736584440000 0 0 0 0 0 1098931967 0 0 0 17 10 0 0 0 0 0 21459200 21708072 39727104 140736584442556 140736584442907 140736584442907 140736584445884 0
/proc/25820/statm: 3013026 3005463 3466 4214 0 3002001 0
Current children cumulated CPU time: 4782.38 s
Current children cumulated vsize: 12052104 KiB
Current children cumulated memory: 12021852 KiB

[startup+4842.3 s]
/proc/loadavg: 1.28 1.19 1.12 2/933 5738
/proc/meminfo: memFree=63309836/131989204 swapFree=244112016/244398076
[pid=25820] ppid=25819 vsize=12170244 memory=12139820 CPUtime=4842.38 cores=0-39
/proc/25820/stat : 25820 (seapp) R 25819 25820 40453 34836 17777 4194304 3330379 0 0 0 481683 2555 0 0 20 0 1 0 477958338 12462329856 3034955 18446744073709551615 4194304 21451464 140736584440000 0 0 0 0 0 1098931967 0 0 0 17 10 0 0 0 0 0 21459200 21708072 39727104 140736584442556 140736584442907 140736584442907 140736584445884 0
/proc/25820/statm: 3042561 3034955 3466 4214 0 3031536 0
Current children cumulated CPU time: 4842.38 s
Current children cumulated vsize: 12170244 KiB
Current children cumulated memory: 12139820 KiB

[startup+4902.3 s]
/proc/loadavg: 1.15 1.16 1.12 2/930 6488
/proc/meminfo: memFree=63164200/131989204 swapFree=244112016/244398076
[pid=25820] ppid=25819 vsize=12317028 memory=12286596 CPUtime=4902.38 cores=0-39
/proc/25820/stat : 25820 (seapp) R 25819 25820 40453 34836 17777 4194304 3369309 0 0 0 487653 2585 0 0 20 0 1 0 477958338 12612636672 3071649 18446744073709551615 4194304 21451464 140736584440000 0 0 0 0 0 1098931967 0 0 0 17 10 0 0 0 0 0 21459200 21708072 39727104 140736584442556 140736584442907 140736584442907 140736584445884 0
/proc/25820/statm: 3079257 3071649 3466 4214 0 3068232 0
Current children cumulated CPU time: 4902.38 s
Current children cumulated vsize: 12317028 KiB
Current children cumulated memory: 12286596 KiB

[startup+4962.3 s]
/proc/loadavg: 1.05 1.13 1.10 2/932 7313
/proc/meminfo: memFree=63047864/131989204 swapFree=244112016/244398076
[pid=25820] ppid=25819 vsize=12433716 memory=12403376 CPUtime=4962.39 cores=0-39
/proc/25820/stat : 25820 (seapp) R 25819 25820 40453 34836 17777 4194304 3402420 0 0 0 493614 2625 0 0 20 0 1 0 477958338 12732125184 3100844 18446744073709551615 4194304 21451464 140736584440000 0 0 0 0 0 1098931967 0 0 0 17 10 0 0 0 0 0 21459200 21708072 39727104 140736584442556 140736584442907 140736584442907 140736584445884 0
/proc/25820/statm: 3108429 3100844 3466 4214 0 3097404 0
Current children cumulated CPU time: 4962.39 s
Current children cumulated vsize: 12433716 KiB
Current children cumulated memory: 12403376 KiB

[startup+5022.3 s]
/proc/loadavg: 1.02 1.11 1.09 2/930 8057
/proc/meminfo: memFree=62862504/131989204 swapFree=244112016/244398076
[pid=25820] ppid=25819 vsize=12617328 memory=12586984 CPUtime=5022.38 cores=0-39
/proc/25820/stat : 25820 (seapp) R 25819 25820 40453 34836 17777 4194304 3449803 0 0 0 499574 2664 0 0 20 0 1 0 477958338 12920143872 3146746 18446744073709551615 4194304 21451464 140736584440000 0 0 0 0 0 1098931967 0 0 0 17 10 0 0 0 0 0 21459200 21708072 39727104 140736584442556 140736584442907 140736584442907 140736584445884 0
/proc/25820/statm: 3154332 3146746 3466 4214 0 3143307 0
Current children cumulated CPU time: 5022.38 s
Current children cumulated vsize: 12617328 KiB
Current children cumulated memory: 12586984 KiB

[startup+5082.3 s]
/proc/loadavg: 1.05 1.10 1.09 2/931 8781
/proc/meminfo: memFree=62820656/131989204 swapFree=244112016/244398076
[pid=25820] ppid=25819 vsize=12660888 memory=12630540 CPUtime=5082.38 cores=0-39
/proc/25820/stat : 25820 (seapp) R 25819 25820 40453 34836 17777 4194304 3463070 0 0 0 505546 2692 0 0 20 0 1 0 477958338 12964749312 3157635 18446744073709551615 4194304 21451464 140736584440000 0 0 0 0 0 1098931967 0 0 0 17 10 0 0 0 0 0 21459200 21708072 39727104 140736584442556 140736584442907 140736584442907 140736584445884 0
/proc/25820/statm: 3165222 3157635 3466 4214 0 3154197 0
Current children cumulated CPU time: 5082.38 s
Current children cumulated vsize: 12660888 KiB
Current children cumulated memory: 12630540 KiB

[startup+5142.3 s]
/proc/loadavg: 1.19 1.13 1.10 2/933 9538
/proc/meminfo: memFree=62719484/131989204 swapFree=244112016/244398076
[pid=25820] ppid=25819 vsize=12759360 memory=12729084 CPUtime=5142.39 cores=0-39
/proc/25820/stat : 25820 (seapp) R 25819 25820 40453 34836 17777 4194304 3489406 0 0 0 511516 2723 0 0 20 0 1 0 477958338 13065584640 3182271 18446744073709551615 4194304 21451464 140736584440000 0 0 0 0 0 1098931967 0 0 0 17 10 0 0 0 0 0 21459200 21708072 39727104 140736584442556 140736584442907 140736584442907 140736584445884 0
/proc/25820/statm: 3189840 3182271 3466 4214 0 3178815 0
Current children cumulated CPU time: 5142.39 s
Current children cumulated vsize: 12759360 KiB
Current children cumulated memory: 12729084 KiB

[startup+5202.3 s]
/proc/loadavg: 1.07 1.10 1.09 2/935 10291
/proc/meminfo: memFree=62655896/131989204 swapFree=244112016/244398076
[pid=25820] ppid=25819 vsize=12820080 memory=12789596 CPUtime=5202.38 cores=0-39
/proc/25820/stat : 25820 (seapp) R 25819 25820 40453 34836 17777 4194304 3507080 0 0 0 517486 2752 0 0 20 0 1 0 477958338 13127761920 3197399 18446744073709551615 4194304 21451464 140736584440000 0 0 0 0 0 1098931967 0 0 0 17 10 0 0 0 0 0 21459200 21708072 39727104 140736584442556 140736584442907 140736584442907 140736584445884 0
/proc/25820/statm: 3205020 3197399 3466 4214 0 3193995 0
Current children cumulated CPU time: 5202.38 s
Current children cumulated vsize: 12820080 KiB
Current children cumulated memory: 12789596 KiB

[startup+5262.3 s]
/proc/loadavg: 1.02 1.08 1.08 2/933 11031
/proc/meminfo: memFree=62626992/131989204 swapFree=244112016/244398076
[pid=25820] ppid=25819 vsize=12851760 memory=12821492 CPUtime=5262.39 cores=0-39
/proc/25820/stat : 25820 (seapp) R 25819 25820 40453 34836 17777 4194304 3522021 0 0 0 523460 2779 0 0 20 0 1 0 477958338 13160202240 3205373 18446744073709551615 4194304 21451464 140736584440000 0 0 0 0 0 1098931967 0 0 0 17 10 0 0 0 0 0 21459200 21708072 39727104 140736584442556 140736584442907 140736584442907 140736584445884 0
/proc/25820/statm: 3212940 3205373 3466 4214 0 3201915 0
Current children cumulated CPU time: 5262.39 s
Current children cumulated vsize: 12851760 KiB
Current children cumulated memory: 12821492 KiB

[startup+5322.3 s]
/proc/loadavg: 1.01 1.06 1.08 2/932 11761
/proc/meminfo: memFree=62600812/131989204 swapFree=244112016/244398076
[pid=25820] ppid=25819 vsize=12875916 memory=12845628 CPUtime=5322.4 cores=0-39
/proc/25820/stat : 25820 (seapp) R 25819 25820 40453 34836 17777 4194304 3538652 0 0 0 529426 2814 0 0 20 0 1 0 477958338 13184937984 3211407 18446744073709551615 4194304 21451464 140736584440000 0 0 0 0 0 1098931967 0 0 0 17 10 0 0 0 0 0 21459200 21708072 39727104 140736584442556 140736584442907 140736584442907 140736584445884 0
/proc/25820/statm: 3218979 3211407 3466 4214 0 3207954 0
Current children cumulated CPU time: 5322.4 s
Current children cumulated vsize: 12875916 KiB
Current children cumulated memory: 12845628 KiB

[startup+5382.3 s]
/proc/loadavg: 1.00 1.05 1.07 2/934 12504
/proc/meminfo: memFree=62550908/131989204 swapFree=244112016/244398076
[pid=25820] ppid=25819 vsize=12924888 memory=12894580 CPUtime=5382.4 cores=0-39
/proc/25820/stat : 25820 (seapp) R 25819 25820 40453 34836 17777 4194304 3553638 0 0 0 535398 2842 0 0 20 0 1 0 477958338 13235085312 3223645 18446744073709551615 4194304 21451464 140736584440000 0 0 0 0 0 1098931967 0 0 0 17 10 0 0 0 0 0 21459200 21708072 39727104 140736584442556 140736584442907 140736584442907 140736584445884 0
/proc/25820/statm: 3231222 3223645 3466 4214 0 3220197 0
Current children cumulated CPU time: 5382.4 s
Current children cumulated vsize: 12924888 KiB
Current children cumulated memory: 12894580 KiB

[startup+5442.3 s]
/proc/loadavg: 1.30 1.10 1.09 2/932 13249
/proc/meminfo: memFree=62480988/131989204 swapFree=244112016/244398076
[pid=25820] ppid=25819 vsize=12997356 memory=12966940 CPUtime=5442.4 cores=0-39
/proc/25820/stat : 25820 (seapp) R 25819 25820 40453 34836 17777 4194304 3574309 0 0 0 541371 2869 0 0 20 0 1 0 477958338 13309292544 3241735 18446744073709551615 4194304 21451464 140736584440000 0 0 0 0 0 1098931967 0 0 0 17 10 0 0 0 0 0 21459200 21708072 39727104 140736584442556 140736584442907 140736584442907 140736584445884 0
/proc/25820/statm: 3249339 3241735 3466 4214 0 3238314 0
Current children cumulated CPU time: 5442.4 s
Current children cumulated vsize: 12997356 KiB
Current children cumulated memory: 12966940 KiB

[startup+5502.3 s]
/proc/loadavg: 1.11 1.08 1.08 2/937 14009
/proc/meminfo: memFree=62319372/131989204 swapFree=244112016/244398076
[pid=25820] ppid=25819 vsize=13155096 memory=13124772 CPUtime=5502.39 cores=0-39
/proc/25820/stat : 25820 (seapp) R 25819 25820 40453 34836 17777 4194304 3616813 0 0 0 547341 2898 0 0 20 0 1 0 477958338 13470818304 3281193 18446744073709551615 4194304 21451464 140736584440000 0 0 0 0 0 1098931967 0 0 0 17 10 0 0 0 0 0 21459200 21708072 39727104 140736584442556 140736584442907 140736584442907 140736584445884 0
/proc/25820/statm: 3288774 3281193 3466 4214 0 3277749 0
Current children cumulated CPU time: 5502.39 s
Current children cumulated vsize: 13155096 KiB
Current children cumulated memory: 13124772 KiB

[startup+5562.3 s]
/proc/loadavg: 1.04 1.06 1.08 2/933 14755
/proc/meminfo: memFree=62191632/131989204 swapFree=244112016/244398076
[pid=25820] ppid=25819 vsize=13285908 memory=13255484 CPUtime=5562.4 cores=0-39
/proc/25820/stat : 25820 (seapp) R 25819 25820 40453 34836 17777 4194304 3651783 0 0 0 553309 2931 0 0 20 0 1 0 477958338 13604769792 3313871 18446744073709551615 4194304 21451464 140736584440000 0 0 0 0 0 1098931967 0 0 0 17 10 0 0 0 0 0 21459200 21708072 39727104 140736584442556 140736584442907 140736584442907 140736584445884 0
/proc/25820/statm: 3321477 3313871 3466 4214 0 3310452 0
Current children cumulated CPU time: 5562.4 s
Current children cumulated vsize: 13285908 KiB
Current children cumulated memory: 13255484 KiB

[startup+5622.3 s]
/proc/loadavg: 1.01 1.05 1.07 2/933 15508
/proc/meminfo: memFree=62128032/131989204 swapFree=244112016/244398076
[pid=25820] ppid=25819 vsize=13350984 memory=13320644 CPUtime=5622.39 cores=0-39
/proc/25820/stat : 25820 (seapp) R 25819 25820 40453 34836 17777 4194304 3671578 0 0 0 559271 2968 0 0 20 0 1 0 477958338 13671407616 3330161 18446744073709551615 4194304 21451464 140736584440000 0 0 0 0 0 1098931967 0 0 0 17 10 0 0 0 0 0 21459200 21708072 39727104 140736584442556 140736584442907 140736584442907 140736584445884 0
/proc/25820/statm: 3337746 3330161 3466 4214 0 3326721 0
Current children cumulated CPU time: 5622.39 s
Current children cumulated vsize: 13350984 KiB
Current children cumulated memory: 13320644 KiB

[startup+5682.3 s]
/proc/loadavg: 1.00 1.04 1.06 2/933 16249
/proc/meminfo: memFree=62050724/131989204 swapFree=244112016/244398076
[pid=25820] ppid=25819 vsize=13428072 memory=13397792 CPUtime=5682.39 cores=0-39
/proc/25820/stat : 25820 (seapp) R 25819 25820 40453 34836 17777 4194304 3704296 0 0 0 565239 3000 0 0 20 0 1 0 477958338 13750345728 3349448 18446744073709551615 4194304 21451464 140736584440000 0 0 0 0 0 1098931967 0 0 0 17 10 0 0 0 0 0 21459200 21708072 39727104 140736584442556 140736584442907 140736584442907 140736584445884 0
/proc/25820/statm: 3357018 3349448 3466 4214 0 3345993 0
Current children cumulated CPU time: 5682.39 s
Current children cumulated vsize: 13428072 KiB
Current children cumulated memory: 13397792 KiB

[startup+5742.3 s]
/proc/loadavg: 1.04 1.04 1.06 2/930 16996
/proc/meminfo: memFree=61990492/131989204 swapFree=244112016/244398076
[pid=25820] ppid=25819 vsize=13489320 memory=13458872 CPUtime=5742.4 cores=0-39
/proc/25820/stat : 25820 (seapp) R 25819 25820 40453 34836 17777 4194304 3729338 0 0 0 571198 3042 0 0 20 0 1 0 477958338 13813063680 3364718 18446744073709551615 4194304 21451464 140736584440000 0 0 0 0 0 1098931967 0 0 0 17 10 0 0 0 0 0 21459200 21708072 39727104 140736584442556 140736584442907 140736584442907 140736584445884 0
/proc/25820/statm: 3372330 3364718 3466 4214 0 3361305 0
Current children cumulated CPU time: 5742.4 s
Current children cumulated vsize: 13489320 KiB
Current children cumulated memory: 13458872 KiB

[startup+5802.3 s]
/proc/loadavg: 1.13 1.08 1.08 2/930 17745
/proc/meminfo: memFree=61916248/131989204 swapFree=244112016/244398076
[pid=25820] ppid=25819 vsize=13559412 memory=13529060 CPUtime=5802.4 cores=0-39
/proc/25820/stat : 25820 (seapp) R 25819 25820 40453 34836 17777 4194304 3748526 0 0 0 577160 3080 0 0 20 0 1 0 477958338 13884837888 3382265 18446744073709551615 4194304 21451464 140736584440000 0 0 0 0 0 1098931967 0 0 0 17 10 0 0 0 0 0 21459200 21708072 39727104 140736584442556 140736584442907 140736584442907 140736584445884 0
/proc/25820/statm: 3389853 3382265 3466 4214 0 3378828 0
Current children cumulated CPU time: 5802.4 s
Current children cumulated vsize: 13559412 KiB
Current children cumulated memory: 13529060 KiB

[startup+5862.3 s]
/proc/loadavg: 1.05 1.06 1.07 2/932 18491
/proc/meminfo: memFree=61824232/131989204 swapFree=244112016/244398076
[pid=25820] ppid=25819 vsize=13653924 memory=13623460 CPUtime=5862.4 cores=0-39
/proc/25820/stat : 25820 (seapp) R 25819 25820 40453 34836 17777 4194304 3778591 0 0 0 583119 3121 0 0 20 0 1 0 477958338 13981618176 3405865 18446744073709551615 4194304 21451464 140736584440000 0 0 0 0 0 1098931967 0 0 0 17 10 0 0 0 0 0 21459200 21708072 39727104 140736584442556 140736584442907 140736584442907 140736584445884 0
/proc/25820/statm: 3413481 3405865 3466 4214 0 3402456 0
Current children cumulated CPU time: 5862.4 s
Current children cumulated vsize: 13653924 KiB
Current children cumulated memory: 13623460 KiB

[startup+5922.3 s]
/proc/loadavg: 1.02 1.05 1.06 2/934 19240
/proc/meminfo: memFree=61718460/131989204 swapFree=244112016/244398076
[pid=25820] ppid=25819 vsize=13756752 memory=13726356 CPUtime=5922.4 cores=0-39
/proc/25820/stat : 25820 (seapp) R 25819 25820 40453 34836 17777 4194304 3808546 0 0 0 589088 3152 0 0 20 0 1 0 477958338 14086914048 3431589 18446744073709551615 4194304 21451464 140736584440000 0 0 0 0 0 1098931967 0 0 0 17 10 0 0 0 0 0 21459200 21708072 39727104 140736584442556 140736584442907 140736584442907 140736584445884 0
/proc/25820/statm: 3439188 3431589 3466 4214 0 3428163 0
Current children cumulated CPU time: 5922.4 s
Current children cumulated vsize: 13756752 KiB
Current children cumulated memory: 13726356 KiB

[startup+5982.3 s]
/proc/loadavg: 1.00 1.04 1.06 2/938 19993
/proc/meminfo: memFree=61645804/131989204 swapFree=244112016/244398076
[pid=25820] ppid=25819 vsize=13823808 memory=13793404 CPUtime=5982.4 cores=0-39
/proc/25820/stat : 25820 (seapp) R 25819 25820 40453 34836 17777 4194304 3830247 0 0 0 595060 3180 0 0 20 0 1 0 477958338 14155579392 3448351 18446744073709551615 4194304 21451464 140736584440000 0 0 0 0 0 1098931967 0 0 0 17 10 0 0 0 0 0 21459200 21708072 39727104 140736584442556 140736584442907 140736584442907 140736584445884 0
/proc/25820/statm: 3455952 3448351 3466 4214 0 3444927 0
Current children cumulated CPU time: 5982.4 s
Current children cumulated vsize: 13823808 KiB
Current children cumulated memory: 13793404 KiB

[startup+6042.3 s]
/proc/loadavg: 1.24 1.12 1.09 2/935 20731
/proc/meminfo: memFree=61563368/131989204 swapFree=244112016/244398076
[pid=25820] ppid=25819 vsize=13909740 memory=13879248 CPUtime=6042.41 cores=0-39
/proc/25820/stat : 25820 (seapp) R 25819 25820 40453 34836 17777 4194304 3854305 0 0 0 601031 3210 0 0 20 0 1 0 477958338 14243573760 3469812 18446744073709551615 4194304 21451464 140736584440000 0 0 0 0 0 1098931967 0 0 0 17 10 0 0 0 0 0 21459200 21708072 39727104 140736584442556 140736584442907 140736584442907 140736584445884 0
/proc/25820/statm: 3477435 3469812 3466 4214 0 3466410 0
Current children cumulated CPU time: 6042.41 s
Current children cumulated vsize: 13909740 KiB
Current children cumulated memory: 13879248 KiB

[startup+6102.3 s]
/proc/loadavg: 1.25 1.14 1.10 2/931 21451
/proc/meminfo: memFree=61492900/131989204 swapFree=244112016/244398076
[pid=25820] ppid=25819 vsize=13984584 memory=13954268 CPUtime=6102.4 cores=0-39
/proc/25820/stat : 25820 (seapp) R 25819 25820 40453 34836 17777 4194304 3874728 0 0 0 606996 3244 0 0 20 0 1 0 477958338 14320214016 3488567 18446744073709551615 4194304 21451464 140736584440000 0 0 0 0 0 1098931967 0 0 0 17 10 0 0 0 0 0 21459200 21708072 39727104 140736584442556 140736584442907 140736584442907 140736584445884 0
/proc/25820/statm: 3496146 3488567 3466 4214 0 3485121 0
Current children cumulated CPU time: 6102.4 s
Current children cumulated vsize: 13984584 KiB
Current children cumulated memory: 13954268 KiB

[startup+6162.3 s]
/proc/loadavg: 1.09 1.11 1.09 2/931 22194
/proc/meminfo: memFree=61453792/131989204 swapFree=244112016/244398076
[pid=25820] ppid=25819 vsize=14026824 memory=13996496 CPUtime=6162.41 cores=0-39
/proc/25820/stat : 25820 (seapp) R 25819 25820 40453 34836 17777 4194304 3888608 0 0 0 612961 3280 0 0 20 0 1 0 477958338 14363467776 3499124 18446744073709551615 4194304 21451464 140736584440000 0 0 0 0 0 1098931967 0 0 0 17 10 0 0 0 0 0 21459200 21708072 39727104 140736584442556 140736584442907 140736584442907 140736584445884 0
/proc/25820/statm: 3506706 3499124 3466 4214 0 3495681 0
Current children cumulated CPU time: 6162.41 s
Current children cumulated vsize: 14026824 KiB
Current children cumulated memory: 13996496 KiB

[startup+6222.3 s]
/proc/loadavg: 1.03 1.09 1.08 2/931 22932
/proc/meminfo: memFree=61409332/131989204 swapFree=244112016/244398076
[pid=25820] ppid=25819 vsize=14068536 memory=14038228 CPUtime=6222.41 cores=0-39
/proc/25820/stat : 25820 (seapp) R 25819 25820 40453 34836 17777 4194304 3900992 0 0 0 618922 3319 0 0 20 0 1 0 477958338 14406180864 3509557 18446744073709551615 4194304 21451464 140736584440000 0 0 0 0 0 1098931967 0 0 0 17 10 0 0 0 0 0 21459200 21708072 39727104 140736584442556 140736584442907 140736584442907 140736584445884 0
/proc/25820/statm: 3517134 3509557 3466 4214 0 3506109 0
Current children cumulated CPU time: 6222.41 s
Current children cumulated vsize: 14068536 KiB
Current children cumulated memory: 14038228 KiB

[startup+6282.3 s]
/proc/loadavg: 1.08 1.09 1.08 2/931 23714
/proc/meminfo: memFree=61365412/131989204 swapFree=244112016/244398076
[pid=25820] ppid=25819 vsize=14110512 memory=14080108 CPUtime=6282.4 cores=0-39
/proc/25820/stat : 25820 (seapp) R 25819 25820 40453 34836 17777 4194304 3912228 0 0 0 624892 3348 0 0 20 0 1 0 477958338 14449164288 3520027 18446744073709551615 4194304 21451464 140736584440000 0 0 0 0 0 1098931967 0 0 0 17 10 0 0 0 0 0 21459200 21708072 39727104 140736584442556 140736584442907 140736584442907 140736584445884 0
/proc/25820/statm: 3527628 3520027 3466 4214 0 3516603 0
Current children cumulated CPU time: 6282.4 s
Current children cumulated vsize: 14110512 KiB
Current children cumulated memory: 14080108 KiB

[startup+6342.3 s]
/proc/loadavg: 1.03 1.07 1.08 2/930 24439
/proc/meminfo: memFree=61320512/131989204 swapFree=244112016/244398076
[pid=25820] ppid=25819 vsize=14155524 memory=14125212 CPUtime=6342.41 cores=0-39
/proc/25820/stat : 25820 (seapp) R 25819 25820 40453 34836 17777 4194304 3923695 0 0 0 630862 3379 0 0 20 0 1 0 477958338 14495256576 3531303 18446744073709551615 4194304 21451464 140736584440000 0 0 0 0 0 1098931967 0 0 0 17 10 0 0 0 0 0 21459200 21708072 39727104 140736584442556 140736584442907 140736584442907 140736584445884 0
/proc/25820/statm: 3538881 3531303 3466 4214 0 3527856 0
Current children cumulated CPU time: 6342.41 s
Current children cumulated vsize: 14155524 KiB
Current children cumulated memory: 14125212 KiB

[startup+6402.3 s]
/proc/loadavg: 1.15 1.09 1.08 2/931 25176
/proc/meminfo: memFree=61292820/131989204 swapFree=244112016/244398076
[pid=25820] ppid=25819 vsize=14184036 memory=14153676 CPUtime=6402.41 cores=0-39
/proc/25820/stat : 25820 (seapp) R 25819 25820 40453 34836 17777 4194304 3937561 0 0 0 636834 3407 0 0 20 0 1 0 477958338 14524452864 3538419 18446744073709551615 4194304 21451464 140736584440000 0 0 0 0 0 1098931967 0 0 0 17 10 0 0 0 0 0 21459200 21708072 39727104 140736584442556 140736584442907 140736584442907 140736584445884 0
/proc/25820/statm: 3546009 3538419 3466 4214 0 3534984 0
Current children cumulated CPU time: 6402.41 s
Current children cumulated vsize: 14184036 KiB
Current children cumulated memory: 14153676 KiB

[startup+6462.3 s]
/proc/loadavg: 1.13 1.09 1.08 2/930 25925
/proc/meminfo: memFree=61242328/131989204 swapFree=244112016/244398076
[pid=25820] ppid=25819 vsize=14236044 memory=14205596 CPUtime=6462.41 cores=0-39
/proc/25820/stat : 25820 (seapp) R 25819 25820 40453 34836 17777 4194304 3952091 0 0 0 642797 3444 0 0 20 0 1 0 477958338 14577709056 3551399 18446744073709551615 4194304 21451464 140736584440000 0 0 0 0 0 1098931967 0 0 0 17 10 0 0 0 0 0 21459200 21708072 39727104 140736584442556 140736584442907 140736584442907 140736584445884 0
/proc/25820/statm: 3559011 3551399 3466 4214 0 3547986 0
Current children cumulated CPU time: 6462.41 s
Current children cumulated vsize: 14236044 KiB
Current children cumulated memory: 14205596 KiB

[startup+6522.3 s]
/proc/loadavg: 1.04 1.07 1.08 2/933 26680
/proc/meminfo: memFree=61189120/131989204 swapFree=244112016/244398076
[pid=25820] ppid=25819 vsize=14285940 memory=14255540 CPUtime=6522.42 cores=0-39
/proc/25820/stat : 25820 (seapp) R 25819 25820 40453 34836 17777 4194304 3966671 0 0 0 648767 3475 0 0 20 0 1 0 477958338 14628802560 3563885 18446744073709551615 4194304 21451464 140736584440000 0 0 0 0 0 1098931967 0 0 0 17 10 0 0 0 0 0 21459200 21708072 39727104 140736584442556 140736584442907 140736584442907 140736584445884 0
/proc/25820/statm: 3571485 3563885 3466 4214 0 3560460 0
Current children cumulated CPU time: 6522.42 s
Current children cumulated vsize: 14285940 KiB
Current children cumulated memory: 14255540 KiB

[startup+6582.3 s]
/proc/loadavg: 1.01 1.05 1.07 2/933 27413
/proc/meminfo: memFree=61153360/131989204 swapFree=244112016/244398076
[pid=25820] ppid=25819 vsize=14321844 memory=14291560 CPUtime=6582.41 cores=0-39
/proc/25820/stat : 25820 (seapp) R 25819 25820 40453 34836 17777 4194304 3977606 0 0 0 654735 3506 0 0 20 0 1 0 477958338 14665568256 3572890 18446744073709551615 4194304 21451464 140736584440000 0 0 0 0 0 1098931967 0 0 0 17 10 0 0 0 0 0 21459200 21708072 39727104 140736584442556 140736584442907 140736584442907 140736584445884 0
/proc/25820/statm: 3580461 3572890 3466 4214 0 3569436 0
Current children cumulated CPU time: 6582.41 s
Current children cumulated vsize: 14321844 KiB
Current children cumulated memory: 14291560 KiB

[startup+6642.3 s]
/proc/loadavg: 1.08 1.06 1.07 2/931 28149
/proc/meminfo: memFree=61066080/131989204 swapFree=244112016/244398076
[pid=25820] ppid=25819 vsize=14411076 memory=14380608 CPUtime=6642.42 cores=0-39
/proc/25820/stat : 25820 (seapp) R 25819 25820 40453 34836 17777 4194304 4002478 0 0 0 660707 3535 0 0 20 0 1 0 477958338 14756941824 3595152 18446744073709551615 4194304 21451464 140736584440000 0 0 0 0 0 1098931967 0 0 0 17 10 0 0 0 0 0 21459200 21708072 39727104 140736584442556 140736584442907 140736584442907 140736584445884 0
/proc/25820/statm: 3602769 3595152 3466 4214 0 3591744 0
Current children cumulated CPU time: 6642.42 s
Current children cumulated vsize: 14411076 KiB
Current children cumulated memory: 14380608 KiB

[startup+6702.3 s]
/proc/loadavg: 1.03 1.05 1.06 2/930 28909
/proc/meminfo: memFree=60967632/131989204 swapFree=244112016/244398076
[pid=25820] ppid=25819 vsize=14508888 memory=14478616 CPUtime=6702.41 cores=0-39
/proc/25820/stat : 25820 (seapp) R 25819 25820 40453 34836 17777 4194304 4028882 0 0 0 666674 3567 0 0 20 0 1 0 477958338 14857101312 3619654 18446744073709551615 4194304 21451464 140736584440000 0 0 0 0 0 1098931967 0 0 0 17 10 0 0 0 0 0 21459200 21708072 39727104 140736584442556 140736584442907 140736584442907 140736584445884 0
/proc/25820/statm: 3627222 3619654 3466 4214 0 3616197 0
Current children cumulated CPU time: 6702.41 s
Current children cumulated vsize: 14508888 KiB
Current children cumulated memory: 14478616 KiB

[startup+6762.3 s]
/proc/loadavg: 1.11 1.08 1.08 2/930 29676
/proc/meminfo: memFree=60918688/131989204 swapFree=244112016/244398076
[pid=25820] ppid=25819 vsize=14555484 memory=14525088 CPUtime=6762.42 cores=0-39
/proc/25820/stat : 25820 (seapp) R 25819 25820 40453 34836 17777 4194304 4042243 0 0 0 672642 3600 0 0 20 0 1 0 477958338 14904815616 3631272 18446744073709551615 4194304 21451464 140736584440000 0 0 0 0 0 1098931967 0 0 0 17 10 0 0 0 0 0 21459200 21708072 39727104 140736584442556 140736584442907 140736584442907 140736584445884 0
/proc/25820/statm: 3638871 3631272 3466 4214 0 3627846 0
Current children cumulated CPU time: 6762.42 s
Current children cumulated vsize: 14555484 KiB
Current children cumulated memory: 14525088 KiB

[startup+6822.3 s]
/proc/loadavg: 1.04 1.06 1.07 2/933 30404
/proc/meminfo: memFree=60868292/131989204 swapFree=244112016/244398076
[pid=25820] ppid=25819 vsize=14603928 memory=14573432 CPUtime=6822.42 cores=0-39
/proc/25820/stat : 25820 (seapp) R 25819 25820 40453 34836 17777 4194304 4054741 0 0 0 678611 3631 0 0 20 0 1 0 477958338 14954422272 3643358 18446744073709551615 4194304 21451464 140736584440000 0 0 0 0 0 1098931967 0 0 0 17 10 0 0 0 0 0 21459200 21708072 39727104 140736584442556 140736584442907 140736584442907 140736584445884 0
/proc/25820/statm: 3650982 3643358 3466 4214 0 3639957 0
Current children cumulated CPU time: 6822.42 s
Current children cumulated vsize: 14603928 KiB
Current children cumulated memory: 14573432 KiB

[startup+6882.3 s]
/proc/loadavg: 1.01 1.05 1.06 2/933 31170
/proc/meminfo: memFree=60815040/131989204 swapFree=244112016/244398076
[pid=25820] ppid=25819 vsize=14657784 memory=14627440 CPUtime=6882.42 cores=0-39
/proc/25820/stat : 25820 (seapp) R 25819 25820 40453 34836 17777 4194304 4069091 0 0 0 684580 3662 0 0 20 0 1 0 477958338 15009570816 3656860 18446744073709551615 4194304 21451464 140736584440000 0 0 0 0 0 1098931967 0 0 0 17 10 0 0 0 0 0 21459200 21708072 39727104 140736584442556 140736584442907 140736584442907 140736584445884 0
/proc/25820/statm: 3664446 3656860 3466 4214 0 3653421 0
Current children cumulated CPU time: 6882.42 s
Current children cumulated vsize: 14657784 KiB
Current children cumulated memory: 14627440 KiB

[startup+6942.3 s]
/proc/loadavg: 1.00 1.04 1.06 2/933 31947
/proc/meminfo: memFree=60773600/131989204 swapFree=244112016/244398076
[pid=25820] ppid=25819 vsize=14702268 memory=14671860 CPUtime=6942.43 cores=0-39
/proc/25820/stat : 25820 (seapp) R 25819 25820 40453 34836 17777 4194304 4081197 0 0 0 690551 3692 0 0 20 0 1 0 477958338 15055122432 3667965 18446744073709551615 4194304 21451464 140736584440000 0 0 0 0 0 1098931967 0 0 0 17 10 0 0 0 0 0 21459200 21708072 39727104 140736584442556 140736584442907 140736584442907 140736584445884 0
/proc/25820/statm: 3675567 3667965 3466 4214 0 3664542 0
Current children cumulated CPU time: 6942.43 s
Current children cumulated vsize: 14702268 KiB
Current children cumulated memory: 14671860 KiB

[startup+7002.3 s]
/proc/loadavg: 1.00 1.03 1.05 2/933 32699
/proc/meminfo: memFree=60718948/131989204 swapFree=244112016/244398076
[pid=25820] ppid=25819 vsize=14759292 memory=14728916 CPUtime=7002.42 cores=0-39
/proc/25820/stat : 25820 (seapp) R 25819 25820 40453 34836 17777 4194304 4096300 0 0 0 696512 3730 0 0 20 0 1 0 477958338 15113515008 3682229 18446744073709551615 4194304 21451464 140736584440000 0 0 0 0 0 1098931967 0 0 0 17 10 0 0 0 0 0 21459200 21708072 39727104 140736584442556 140736584442907 140736584442907 140736584445884 0
/proc/25820/statm: 3689823 3682229 3466 4214 0 3678798 0
Current children cumulated CPU time: 7002.42 s
Current children cumulated vsize: 14759292 KiB
Current children cumulated memory: 14728916 KiB

[startup+7062.3 s]
/proc/loadavg: 1.08 1.05 1.06 4/937 33438
/proc/meminfo: memFree=60665620/131989204 swapFree=244112016/244398076
[pid=25820] ppid=25819 vsize=14811564 memory=14781076 CPUtime=7062.42 cores=0-39
/proc/25820/stat : 25820 (seapp) R 25819 25820 40453 34836 17777 4194304 4114482 0 0 0 702481 3761 0 0 20 0 1 0 477958338 15167041536 3695269 18446744073709551615 4194304 21451464 140736584440000 0 0 0 0 0 1098931967 0 0 0 17 10 0 0 0 0 0 21459200 21708072 39727104 140736584442556 140736584442907 140736584442907 140736584445884 0
/proc/25820/statm: 3702891 3695269 3466 4214 0 3691866 0
Current children cumulated CPU time: 7062.42 s
Current children cumulated vsize: 14811564 KiB
Current children cumulated memory: 14781076 KiB

[startup+7122.3 s]
/proc/loadavg: 1.03 1.04 1.05 2/932 34169
/proc/meminfo: memFree=60606508/131989204 swapFree=244112016/244398076
[pid=25820] ppid=25819 vsize=14869380 memory=14838928 CPUtime=7122.42 cores=0-39
/proc/25820/stat : 25820 (seapp) R 25819 25820 40453 34836 17777 4194304 4135398 0 0 0 708453 3789 0 0 20 0 1 0 477958338 15226245120 3709732 18446744073709551615 4194304 21451464 140736584440000 0 0 0 0 0 1098931967 0 0 0 17 10 0 0 0 0 0 21459200 21708072 39727104 140736584442556 140736584442907 140736584442907 140736584445884 0
/proc/25820/statm: 3717345 3709732 3466 4214 0 3706320 0
Current children cumulated CPU time: 7122.42 s
Current children cumulated vsize: 14869380 KiB
Current children cumulated memory: 14838928 KiB

[startup+7182.3 s]
/proc/loadavg: 1.01 1.03 1.05 2/932 34915
/proc/meminfo: memFree=60541668/131989204 swapFree=244112016/244398076
[pid=25820] ppid=25819 vsize=14934852 memory=14904496 CPUtime=7182.43 cores=0-39
/proc/25820/stat : 25820 (seapp) R 25819 25820 40453 34836 17777 4194304 4152662 0 0 0 714425 3818 0 0 20 0 1 0 477958338 15293288448 3726124 18446744073709551615 4194304 21451464 140736584440000 0 0 0 0 0 1098931967 0 0 0 17 10 0 0 0 0 0 21459200 21708072 39727104 140736584442556 140736584442907 140736584442907 140736584445884 0
/proc/25820/statm: 3733713 3726124 3466 4214 0 3722688 0
Current children cumulated CPU time: 7182.43 s
Current children cumulated vsize: 14934852 KiB
Current children cumulated memory: 14904496 KiB

[startup+7242.3 s]
/proc/loadavg: 1.16 1.06 1.05 2/930 35654
/proc/meminfo: memFree=60493612/131989204 swapFree=244112016/244398076
[pid=25820] ppid=25819 vsize=14984088 memory=14953688 CPUtime=7242.43 cores=0-39
/proc/25820/stat : 25820 (seapp) R 25819 25820 40453 34836 17777 4194304 4172149 0 0 0 720387 3856 0 0 20 0 1 0 477958338 15343706112 3738422 18446744073709551615 4194304 21451464 140736584440000 0 0 0 0 0 1098931967 0 0 0 17 10 0 0 0 0 0 21459200 21708072 39727104 140736584442556 140736584442907 140736584442907 140736584445884 0
/proc/25820/statm: 3746022 3738422 3466 4214 0 3734997 0
Current children cumulated CPU time: 7242.43 s
Current children cumulated vsize: 14984088 KiB
Current children cumulated memory: 14953688 KiB

[startup+7302.3 s]
/proc/loadavg: 1.27 1.12 1.08 2/931 36398
/proc/meminfo: memFree=60461988/131989204 swapFree=244112016/244398076
[pid=25820] ppid=25819 vsize=15012072 memory=14981708 CPUtime=7302.43 cores=0-39
/proc/25820/stat : 25820 (seapp) R 25819 25820 40453 34836 17777 4194304 4180032 0 0 0 726358 3885 0 0 20 0 1 0 477958338 15372361728 3745427 18446744073709551615 4194304 21451464 140736584440000 0 0 0 0 0 1098931967 0 0 0 17 10 0 0 0 0 0 21459200 21708072 39727104 140736584442556 140736584442907 140736584442907 140736584445884 0
/proc/25820/statm: 3753018 3745427 3466 4214 0 3741993 0
Current children cumulated CPU time: 7302.43 s
Current children cumulated vsize: 15012072 KiB
Current children cumulated memory: 14981708 KiB

[startup+7362.3 s]
/proc/loadavg: 1.38 1.17 1.10 2/931 37127
/proc/meminfo: memFree=60440280/131989204 swapFree=244112016/244398076
[pid=25820] ppid=25819 vsize=15034908 memory=15004528 CPUtime=7362.43 cores=0-39
/proc/25820/stat : 25820 (seapp) R 25819 25820 40453 34836 17777 4194304 4186255 0 0 0 732331 3912 0 0 20 0 1 0 477958338 15395745792 3751132 18446744073709551615 4194304 21451464 140736584440000 0 0 0 0 0 1098931967 0 0 0 17 10 0 0 0 0 0 21459200 21708072 39727104 140736584442556 140736584442907 140736584442907 140736584445884 0
/proc/25820/statm: 3758727 3751132 3466 4214 0 3747702 0
Current children cumulated CPU time: 7362.43 s
Current children cumulated vsize: 15034908 KiB
Current children cumulated memory: 15004528 KiB

[startup+7422.3 s]
/proc/loadavg: 1.32 1.20 1.11 2/930 37872
/proc/meminfo: memFree=60400528/131989204 swapFree=244112016/244398076
[pid=25820] ppid=25819 vsize=15077676 memory=15047360 CPUtime=7422.43 cores=0-39
/proc/25820/stat : 25820 (seapp) R 25819 25820 40453 34836 17777 4194304 4197843 0 0 0 738301 3942 0 0 20 0 1 0 477958338 15439540224 3761840 18446744073709551615 4194304 21451464 140736584440000 0 0 0 0 0 1098931967 0 0 0 17 10 0 0 0 0 0 21459200 21708072 39727104 140736584442556 140736584442907 140736584442907 140736584445884 0
/proc/25820/statm: 3769419 3761840 3466 4214 0 3758394 0
Current children cumulated CPU time: 7422.43 s
Current children cumulated vsize: 15077676 KiB
Current children cumulated memory: 15047360 KiB

[startup+7482.3 s]
/proc/loadavg: 1.12 1.16 1.09 2/931 38619
/proc/meminfo: memFree=60326368/131989204 swapFree=244112016/244398076
[pid=25820] ppid=25819 vsize=15149748 memory=15119252 CPUtime=7482.43 cores=0-39
/proc/25820/stat : 25820 (seapp) R 25819 25820 40453 34836 17777 4194304 4218497 0 0 0 744271 3972 0 0 20 0 1 0 477958338 15513341952 3779813 18446744073709551615 4194304 21451464 140736584440000 0 0 0 0 0 1098931967 0 0 0 17 10 0 0 0 0 0 21459200 21708072 39727104 140736584442556 140736584442907 140736584442907 140736584445884 0
/proc/25820/statm: 3787437 3779813 3466 4214 0 3776412 0
Current children cumulated CPU time: 7482.43 s
Current children cumulated vsize: 15149748 KiB
Current children cumulated memory: 15119252 KiB

[startup+7542.3 s]
/proc/loadavg: 1.13 1.16 1.09 2/930 39355
/proc/meminfo: memFree=60201728/131989204 swapFree=244112016/244398076
[pid=25820] ppid=25819 vsize=15273036 memory=15242736 CPUtime=7542.43 cores=0-39
/proc/25820/stat : 25820 (seapp) R 25819 25820 40453 34836 17777 4194304 4251114 0 0 0 750239 4004 0 0 20 0 1 0 477958338 15639588864 3810684 18446744073709551615 4194304 21451464 140736584440000 0 0 0 0 0 1098931967 0 0 0 17 10 0 0 0 0 0 21459200 21708072 39727104 140736584442556 140736584442907 140736584442907 140736584445884 0
/proc/25820/statm: 3818259 3810684 3466 4214 0 3807234 0
Current children cumulated CPU time: 7542.43 s
Current children cumulated vsize: 15273036 KiB
Current children cumulated memory: 15242736 KiB

[startup+7602.3 s]
/proc/loadavg: 1.05 1.13 1.09 2/930 40094
/proc/meminfo: memFree=60096444/131989204 swapFree=244112016/244398076
[pid=25820] ppid=25819 vsize=15378900 memory=15348672 CPUtime=7602.43 cores=0-39
/proc/25820/stat : 25820 (seapp) R 25819 25820 40453 34836 17777 4194304 4282268 0 0 0 756207 4036 0 0 20 0 1 0 477958338 15747993600 3837168 18446744073709551615 4194304 21451464 140736584440000 0 0 0 0 0 1098931967 0 0 0 17 10 0 0 0 0 0 21459200 21708072 39727104 140736584442556 140736584442907 140736584442907 140736584445884 0
/proc/25820/statm: 3844725 3837168 3466 4214 0 3833700 0
Current children cumulated CPU time: 7602.43 s
Current children cumulated vsize: 15378900 KiB
Current children cumulated memory: 15348672 KiB

[startup+7662.3 s]
/proc/loadavg: 1.27 1.16 1.10 2/931 40845
/proc/meminfo: memFree=59911564/131989204 swapFree=244112016/244398076
[pid=25820] ppid=25819 vsize=15562512 memory=15532192 CPUtime=7662.44 cores=0-39
/proc/25820/stat : 25820 (seapp) R 25819 25820 40453 34836 17777 4194304 4329528 0 0 0 762176 4068 0 0 20 0 1 0 477958338 15936012288 3883048 18446744073709551615 4194304 21451464 140736584440000 0 0 0 0 0 1098931967 0 0 0 17 10 0 0 0 0 0 21459200 21708072 39727104 140736584442556 140736584442907 140736584442907 140736584445884 0
/proc/25820/statm: 3890628 3883048 3466 4214 0 3879603 0
Current children cumulated CPU time: 7662.44 s
Current children cumulated vsize: 15562512 KiB
Current children cumulated memory: 15532192 KiB

[startup+7722.3 s]
/proc/loadavg: 1.10 1.13 1.09 2/931 987
/proc/meminfo: memFree=59742580/131989204 swapFree=244112016/244398076
[pid=25820] ppid=25819 vsize=15732132 memory=15701692 CPUtime=7722.44 cores=0-39
/proc/25820/stat : 25820 (seapp) R 25819 25820 40453 34836 17777 4194304 4372376 0 0 0 768140 4104 0 0 20 0 1 0 477958338 16109703168 3925423 18446744073709551615 4194304 21451464 140736584440000 0 0 0 0 0 1098931967 0 0 0 17 10 0 0 0 0 0 21459200 21708072 39727104 140736584442556 140736584442907 140736584442907 140736584445884 0
/proc/25820/statm: 3933033 3925423 3466 4214 0 3922008 0
Current children cumulated CPU time: 7722.44 s
Current children cumulated vsize: 15732132 KiB
Current children cumulated memory: 15701692 KiB

[startup+7782.3 s]
/proc/loadavg: 1.17 1.14 1.10 2/931 1764
/proc/meminfo: memFree=59583000/131989204 swapFree=244112016/244398076
[pid=25820] ppid=25819 vsize=15892776 memory=15862452 CPUtime=7782.44 cores=0-39
/proc/25820/stat : 25820 (seapp) R 25819 25820 40453 34836 17777 4194304 4412896 0 0 0 774105 4139 0 0 20 0 1 0 477958338 16274202624 3965613 18446744073709551615 4194304 21451464 140736584440000 0 0 0 0 0 1098931967 0 0 0 17 10 0 0 0 0 0 21459200 21708072 39727104 140736584442556 140736584442907 140736584442907 140736584445884 0
/proc/25820/statm: 3973194 3965613 3466 4214 0 3962169 0
Current children cumulated CPU time: 7782.44 s
Current children cumulated vsize: 15892776 KiB
Current children cumulated memory: 15862452 KiB

[startup+7842.3 s]
/proc/loadavg: 1.06 1.11 1.09 2/931 2512
/proc/meminfo: memFree=59551096/131989204 swapFree=244112016/244398076
[pid=25820] ppid=25819 vsize=15920100 memory=15889860 CPUtime=7842.44 cores=0-39
/proc/25820/stat : 25820 (seapp) R 25819 25820 40453 34836 17777 4194304 4427787 0 0 0 780073 4171 0 0 20 0 1 0 477958338 16302182400 3972465 18446744073709551615 4194304 21451464 140736584440000 0 0 0 0 0 1098931967 0 0 0 17 10 0 0 0 0 0 21459200 21708072 39727104 140736584442556 140736584442907 140736584442907 140736584445884 0
/proc/25820/statm: 3980025 3972465 3466 4214 0 3969000 0
Current children cumulated CPU time: 7842.44 s
Current children cumulated vsize: 15920100 KiB
Current children cumulated memory: 15889860 KiB

[startup+7902.3 s]
/proc/loadavg: 1.08 1.10 1.09 2/930 3473
/proc/meminfo: memFree=59549264/131989204 swapFree=244112016/244398076
[pid=25820] ppid=25819 vsize=15925248 memory=15894864 CPUtime=7902.44 cores=0-39
/proc/25820/stat : 25820 (seapp) R 25819 25820 40453 34836 17777 4194304 4429260 0 0 0 786044 4200 0 0 20 0 1 0 477958338 16307453952 3973716 18446744073709551615 4194304 21451464 140736584440000 0 0 0 0 0 1098931967 0 0 0 17 10 0 0 0 0 0 21459200 21708072 39727104 140736584442556 140736584442907 140736584442907 140736584445884 0
/proc/25820/statm: 3981312 3973716 3466 4214 0 3970287 0
Current children cumulated CPU time: 7902.44 s
Current children cumulated vsize: 15925248 KiB
Current children cumulated memory: 15894864 KiB

[startup+7962.3 s]
/proc/loadavg: 1.03 1.08 1.08 2/932 4246
/proc/meminfo: memFree=59522364/131989204 swapFree=244112016/244398076
[pid=25820] ppid=25819 vsize=15950328 memory=15920028 CPUtime=7962.44 cores=0-39
/proc/25820/stat : 25820 (seapp) R 25819 25820 40453 34836 17777 4194304 4442380 0 0 0 792007 4237 0 0 20 0 1 0 477958338 16333135872 3980007 18446744073709551615 4194304 21451464 140736584440000 0 0 0 0 0 1098931967 0 0 0 17 10 0 0 0 0 0 21459200 21708072 39727104 140736584442556 140736584442907 140736584442907 140736584445884 0
/proc/25820/statm: 3987582 3980007 3466 4214 0 3976557 0
Current children cumulated CPU time: 7962.44 s
Current children cumulated vsize: 15950328 KiB
Current children cumulated memory: 15920028 KiB

[startup+8022.3 s]
/proc/loadavg: 1.11 1.11 1.09 2/930 4993
/proc/meminfo: memFree=59458372/131989204 swapFree=244112016/244398076
[pid=25820] ppid=25819 vsize=16013688 memory=15983352 CPUtime=8022.44 cores=0-39
/proc/25820/stat : 25820 (seapp) R 25819 25820 40453 34836 17777 4194304 4464438 0 0 0 797971 4273 0 0 20 0 1 0 477958338 16398016512 3995838 18446744073709551615 4194304 21451464 140736584440000 0 0 0 0 0 1098931967 0 0 0 17 10 0 0 0 0 0 21459200 21708072 39727104 140736584442556 140736584442907 140736584442907 140736584445884 0
/proc/25820/statm: 4003422 3995838 3466 4214 0 3992397 0
Current children cumulated CPU time: 8022.44 s
Current children cumulated vsize: 16013688 KiB
Current children cumulated memory: 15983352 KiB

[startup+8082.3 s]
/proc/loadavg: 1.04 1.08 1.08 2/930 5727
/proc/meminfo: memFree=59412840/131989204 swapFree=244112016/244398076
[pid=25820] ppid=25819 vsize=16058172 memory=16027680 CPUtime=8082.44 cores=0-39
/proc/25820/stat : 25820 (seapp) R 25819 25820 40453 34836 17777 4194304 4478925 0 0 0 803930 4314 0 0 20 0 1 0 477958338 16443568128 4006920 18446744073709551615 4194304 21451464 140736584440000 0 0 0 0 0 1098931967 0 0 0 17 10 0 0 0 0 0 21459200 21708072 39727104 140736584442556 140736584442907 140736584442907 140736584445884 0
/proc/25820/statm: 4014543 4006920 3466 4214 0 4003518 0
Current children cumulated CPU time: 8082.44 s
Current children cumulated vsize: 16058172 KiB
Current children cumulated memory: 16027680 KiB

[startup+8142.3 s]
/proc/loadavg: 1.12 1.11 1.09 2/931 6477
/proc/meminfo: memFree=59337520/131989204 swapFree=244112016/244398076
[pid=25820] ppid=25819 vsize=16134072 memory=16103764 CPUtime=8142.44 cores=0-39
/proc/25820/stat : 25820 (seapp) R 25819 25820 40453 34836 17777 4194304 4508754 0 0 0 809896 4348 0 0 20 0 1 0 477958338 16521289728 4025941 18446744073709551615 4194304 21451464 140736584440000 0 0 0 0 0 1098931967 0 0 0 17 10 0 0 0 0 0 21459200 21708072 39727104 140736584442556 140736584442907 140736584442907 140736584445884 0
/proc/25820/statm: 4033518 4025941 3466 4214 0 4022493 0
Current children cumulated CPU time: 8142.44 s
Current children cumulated vsize: 16134072 KiB
Current children cumulated memory: 16103764 KiB

[startup+8202.3 s]
/proc/loadavg: 1.04 1.09 1.08 2/931 7288
/proc/meminfo: memFree=59283272/131989204 swapFree=244112016/244398076
[pid=25820] ppid=25819 vsize=16189776 memory=16159336 CPUtime=8202.44 cores=0-39
/proc/25820/stat : 25820 (seapp) R 25819 25820 40453 34836 17777 4194304 4528560 0 0 0 815863 4381 0 0 20 0 1 0 477958338 16578330624 4039834 18446744073709551615 4194304 21451464 140736584440000 0 0 0 0 0 1098931967 0 0 0 17 10 0 0 0 0 0 21459200 21708072 39727104 140736584442556 140736584442907 140736584442907 140736584445884 0
/proc/25820/statm: 4047444 4039834 3466 4214 0 4036419 0
Current children cumulated CPU time: 8202.44 s
Current children cumulated vsize: 16189776 KiB
Current children cumulated memory: 16159336 KiB

[startup+8262.3 s]
/proc/loadavg: 1.06 1.08 1.08 2/930 8036
/proc/meminfo: memFree=59233964/131989204 swapFree=244112016/244398076
[pid=25820] ppid=25819 vsize=16238616 memory=16208156 CPUtime=8262.44 cores=0-39
/proc/25820/stat : 25820 (seapp) R 25819 25820 40453 34836 17777 4194304 4545787 0 0 0 821829 4415 0 0 20 0 1 0 477958338 16628342784 4052039 18446744073709551615 4194304 21451464 140736584440000 0 0 0 0 0 1098931967 0 0 0 17 10 0 0 0 0 0 21459200 21708072 39727104 140736584442556 140736584442907 140736584442907 140736584445884 0
/proc/25820/statm: 4059654 4052039 3466 4214 0 4048629 0
Current children cumulated CPU time: 8262.44 s
Current children cumulated vsize: 16238616 KiB
Current children cumulated memory: 16208156 KiB

[startup+8322.3 s]
/proc/loadavg: 1.14 1.11 1.09 5/933 8772
/proc/meminfo: memFree=59185388/131989204 swapFree=244112016/244398076
[pid=25820] ppid=25819 vsize=16284036 memory=16253724 CPUtime=8322.44 cores=0-39
/proc/25820/stat : 25820 (seapp) R 25819 25820 40453 34836 17777 4194304 4610950 0 0 0 827768 4476 0 0 20 0 1 0 477958338 16674852864 4063431 18446744073709551615 4194304 21451464 140736584440000 0 0 0 0 0 1098931967 0 0 0 17 10 0 0 0 0 0 21459200 21708072 39727104 140736584442556 140736584442907 140736584442907 140736584445884 0
/proc/25820/statm: 4071009 4063431 3466 4214 0 4059984 0
Current children cumulated CPU time: 8322.44 s
Current children cumulated vsize: 16284036 KiB
Current children cumulated memory: 16253724 KiB

[startup+8382.3 s]
/proc/loadavg: 1.05 1.09 1.09 2/931 9529
/proc/meminfo: memFree=59187296/131989204 swapFree=244112016/244398076
[pid=25820] ppid=25819 vsize=16284036 memory=16253724 CPUtime=8382.45 cores=0-39
/proc/25820/stat : 25820 (seapp) R 25819 25820 40453 34836 17777 4194304 4662516 0 0 0 833735 4510 0 0 20 0 1 0 477958338 16674852864 4063431 18446744073709551615 4194304 21451464 140736584440000 0 0 0 0 0 1098931967 0 0 0 17 10 0 0 0 0 0 21459200 21708072 39727104 140736584442556 140736584442907 140736584442907 140736584445884 0
/proc/25820/statm: 4071009 4063431 3466 4214 0 4059984 0
Current children cumulated CPU time: 8382.45 s
Current children cumulated vsize: 16284036 KiB
Current children cumulated memory: 16253724 KiB

[startup+8442.3 s]
/proc/loadavg: 1.11 1.10 1.09 2/933 10280
/proc/meminfo: memFree=59185244/131989204 swapFree=244112016/244398076
[pid=25820] ppid=25819 vsize=16284036 memory=16253724 CPUtime=8442.45 cores=0-39
/proc/25820/stat : 25820 (seapp) R 25819 25820 40453 34836 17777 4194304 4717670 0 0 0 839698 4547 0 0 20 0 1 0 477958338 16674852864 4063431 18446744073709551615 4194304 21451464 140736584440000 0 0 0 0 0 1098931967 0 0 0 17 10 0 0 0 0 0 21459200 21708072 39727104 140736584442556 140736584442907 140736584442907 140736584445884 0
/proc/25820/statm: 4071009 4063431 3466 4214 0 4059984 0
Current children cumulated CPU time: 8442.45 s
Current children cumulated vsize: 16284036 KiB
Current children cumulated memory: 16253724 KiB

[startup+8502.3 s]
/proc/loadavg: 1.38 1.16 1.11 2/935 11030
/proc/meminfo: memFree=59182704/131989204 swapFree=244112016/244398076
[pid=25820] ppid=25819 vsize=16284036 memory=16253724 CPUtime=8502.45 cores=0-39
/proc/25820/stat : 25820 (seapp) R 25819 25820 40453 34836 17777 4194304 4730855 0 0 0 845660 4585 0 0 20 0 1 0 477958338 16674852864 4063431 18446744073709551615 4194304 21451464 140736584440000 0 0 0 0 0 1098931967 0 0 0 17 10 0 0 0 0 0 21459200 21708072 39727104 140736584442556 140736584442907 140736584442907 140736584445884 0
/proc/25820/statm: 4071009 4063431 3466 4214 0 4059984 0
Current children cumulated CPU time: 8502.45 s
Current children cumulated vsize: 16284036 KiB
Current children cumulated memory: 16253724 KiB

[startup+8562.3 s]
/proc/loadavg: 1.21 1.16 1.11 2/932 11767
/proc/meminfo: memFree=59184844/131989204 swapFree=244112016/244398076
[pid=25820] ppid=25819 vsize=16284036 memory=16253724 CPUtime=8562.46 cores=0-39
/proc/25820/stat : 25820 (seapp) R 25819 25820 40453 34836 17777 4194304 4740933 0 0 0 851629 4617 0 0 20 0 1 0 477958338 16674852864 4063431 18446744073709551615 4194304 21451464 140736584440000 0 0 0 0 0 1098931967 0 0 0 17 10 0 0 0 0 0 21459200 21708072 39727104 140736584442556 140736584442907 140736584442907 140736584445884 0
/proc/25820/statm: 4071009 4063431 3466 4214 0 4059984 0
Current children cumulated CPU time: 8562.46 s
Current children cumulated vsize: 16284036 KiB
Current children cumulated memory: 16253724 KiB

[startup+8622.3 s]
/proc/loadavg: 1.23 1.17 1.12 2/934 12497
/proc/meminfo: memFree=59182504/131989204 swapFree=244112016/244398076
[pid=25820] ppid=25819 vsize=16284036 memory=16253724 CPUtime=8622.45 cores=0-39
/proc/25820/stat : 25820 (seapp) R 25819 25820 40453 34836 17777 4194304 4746334 0 0 0 857595 4650 0 0 20 0 1 0 477958338 16674852864 4063431 18446744073709551615 4194304 21451464 140736584440000 0 0 0 0 0 1098931967 0 0 0 17 10 0 0 0 0 0 21459200 21708072 39727104 140736584442556 140736584442907 140736584442907 140736584445884 0
/proc/25820/statm: 4071009 4063431 3466 4214 0 4059984 0
Current children cumulated CPU time: 8622.45 s
Current children cumulated vsize: 16284036 KiB
Current children cumulated memory: 16253724 KiB

[startup+8682.3 s]
/proc/loadavg: 1.08 1.14 1.10 2/939 13249
/proc/meminfo: memFree=59179684/131989204 swapFree=244112016/244398076
[pid=25820] ppid=25819 vsize=16284036 memory=16253724 CPUtime=8682.46 cores=0-39
/proc/25820/stat : 25820 (seapp) R 25819 25820 40453 34836 17777 4194304 4751342 0 0 0 863563 4683 0 0 20 0 1 0 477958338 16674852864 4063431 18446744073709551615 4194304 21451464 140736584440000 0 0 0 0 0 1098931967 0 0 0 17 10 0 0 0 0 0 21459200 21708072 39727104 140736584442556 140736584442907 140736584442907 140736584445884 0
/proc/25820/statm: 4071009 4063431 3466 4214 0 4059984 0
Current children cumulated CPU time: 8682.46 s
Current children cumulated vsize: 16284036 KiB
Current children cumulated memory: 16253724 KiB

[startup+8742.3 s]
/proc/loadavg: 1.03 1.11 1.09 2/933 13995
/proc/meminfo: memFree=59181556/131989204 swapFree=244112016/244398076
[pid=25820] ppid=25819 vsize=16284036 memory=16253724 CPUtime=8742.46 cores=0-39
/proc/25820/stat : 25820 (seapp) R 25819 25820 40453 34836 17777 4194304 4792218 0 0 0 869525 4721 0 0 20 0 1 0 477958338 16674852864 4063431 18446744073709551615 4194304 21451464 140736584440000 0 0 0 0 0 1098931967 0 0 0 17 10 0 0 0 0 0 21459200 21708072 39727104 140736584442556 140736584442907 140736584442907 140736584445884 0
/proc/25820/statm: 4071009 4063431 3466 4214 0 4059984 0
Current children cumulated CPU time: 8742.46 s
Current children cumulated vsize: 16284036 KiB
Current children cumulated memory: 16253724 KiB

[startup+8802.3 s]
/proc/loadavg: 1.01 1.09 1.09 2/931 14742
/proc/meminfo: memFree=59186316/131989204 swapFree=244112016/244398076
[pid=25820] ppid=25819 vsize=16284036 memory=16253724 CPUtime=8802.46 cores=0-39
/proc/25820/stat : 25820 (seapp) R 25819 25820 40453 34836 17777 4194304 4802649 0 0 0 875485 4761 0 0 20 0 1 0 477958338 16674852864 4063431 18446744073709551615 4194304 21451464 140736584440000 0 0 0 0 0 1098931967 0 0 0 17 10 0 0 0 0 0 21459200 21708072 39727104 140736584442556 140736584442907 140736584442907 140736584445884 0
/proc/25820/statm: 4071009 4063431 3466 4214 0 4059984 0
Current children cumulated CPU time: 8802.46 s
Current children cumulated vsize: 16284036 KiB
Current children cumulated memory: 16253724 KiB

[startup+8862.3 s]
/proc/loadavg: 1.00 1.07 1.08 2/933 15482
/proc/meminfo: memFree=59183196/131989204 swapFree=244112016/244398076
[pid=25820] ppid=25819 vsize=16284036 memory=16253724 CPUtime=8862.46 cores=0-39
/proc/25820/stat : 25820 (seapp) R 25819 25820 40453 34836 17777 4194304 4803805 0 0 0 881454 4792 0 0 20 0 1 0 477958338 16674852864 4063431 18446744073709551615 4194304 21451464 140736584440000 0 0 0 0 0 1098931967 0 0 0 17 10 0 0 0 0 0 21459200 21708072 39727104 140736584442556 140736584442907 140736584442907 140736584445884 0
/proc/25820/statm: 4071009 4063431 3466 4214 0 4059984 0
Current children cumulated CPU time: 8862.46 s
Current children cumulated vsize: 16284036 KiB
Current children cumulated memory: 16253724 KiB

[startup+8922.3 s]
/proc/loadavg: 1.20 1.10 1.09 2/932 16224
/proc/meminfo: memFree=59186896/131989204 swapFree=244112016/244398076
[pid=25820] ppid=25819 vsize=16284036 memory=16253724 CPUtime=8922.46 cores=0-39
/proc/25820/stat : 25820 (seapp) R 25819 25820 40453 34836 17777 4194304 4804510 0 0 0 887423 4823 0 0 20 0 1 0 477958338 16674852864 4063431 18446744073709551615 4194304 21451464 140736584440000 0 0 0 0 0 1098931967 0 0 0 17 10 0 0 0 0 0 21459200 21708072 39727104 140736584442556 140736584442907 140736584442907 140736584445884 0
/proc/25820/statm: 4071009 4063431 3466 4214 0 4059984 0
Current children cumulated CPU time: 8922.46 s
Current children cumulated vsize: 16284036 KiB
Current children cumulated memory: 16253724 KiB

[startup+8982.3 s]
/proc/loadavg: 1.07 1.08 1.08 2/930 16971
/proc/meminfo: memFree=59188744/131989204 swapFree=244112016/244398076
[pid=25820] ppid=25819 vsize=16284036 memory=16253724 CPUtime=8982.46 cores=0-39
/proc/25820/stat : 25820 (seapp) R 25819 25820 40453 34836 17777 4194304 4804806 0 0 0 893392 4854 0 0 20 0 1 0 477958338 16674852864 4063431 18446744073709551615 4194304 21451464 140736584440000 0 0 0 0 0 1098931967 0 0 0 17 10 0 0 0 0 0 21459200 21708072 39727104 140736584442556 140736584442907 140736584442907 140736584445884 0
/proc/25820/statm: 4071009 4063431 3466 4214 0 4059984 0
Current children cumulated CPU time: 8982.46 s
Current children cumulated vsize: 16284036 KiB
Current children cumulated memory: 16253724 KiB

[startup+9042.3 s]
/proc/loadavg: 1.02 1.06 1.08 2/931 17710
/proc/meminfo: memFree=59187552/131989204 swapFree=244112016/244398076
[pid=25820] ppid=25819 vsize=16284168 memory=16253888 CPUtime=9042.47 cores=0-39
/proc/25820/stat : 25820 (seapp) R 25819 25820 40453 34836 17777 4194304 4818095 0 0 0 899327 4920 0 0 20 0 1 0 477958338 16674988032 4063472 18446744073709551615 4194304 21451464 140736584440000 0 0 0 0 0 1098931967 0 0 0 17 10 0 0 0 0 0 21459200 21708072 39727104 140736584442556 140736584442907 140736584442907 140736584445884 0
/proc/25820/statm: 4071042 4063472 3466 4214 0 4060017 0
Current children cumulated CPU time: 9042.47 s
Current children cumulated vsize: 16284168 KiB
Current children cumulated memory: 16253888 KiB

[startup+9102.3 s]
/proc/loadavg: 1.32 1.13 1.10 2/931 18442
/proc/meminfo: memFree=59184476/131989204 swapFree=244112016/244398076
[pid=25820] ppid=25819 vsize=16284168 memory=16253888 CPUtime=9102.47 cores=0-39
/proc/25820/stat : 25820 (seapp) R 25819 25820 40453 34836 17777 4194304 4827855 0 0 0 905287 4960 0 0 20 0 1 0 477958338 16674988032 4063472 18446744073709551615 4194304 21451464 140736584440000 0 0 0 0 0 1098931967 0 0 0 17 10 0 0 0 0 0 21459200 21708072 39727104 140736584442556 140736584442907 140736584442907 140736584445884 0
/proc/25820/statm: 4071042 4063472 3466 4214 0 4060017 0
Current children cumulated CPU time: 9102.47 s
Current children cumulated vsize: 16284168 KiB
Current children cumulated memory: 16253888 KiB

****CallGraph SCC Stat****
################ (program : temps/opt)###############
-------------------------------------------------------
CalRetPairInCycle   1095
MaxNodeInCycle      220
NodeInCycle         431
TotalCycle          102
TotalEdge           174489
TotalNode           31149
#######################################################

****Andersen Pointer Analysis Statistics****
################ (program : temps/opt)###############
TotalObjects        49492
TotalFieldObjects   35764
TotalPointers       667414
HeapObjs            1147
FunctionObjs        31149
GlobalObjs          1496
StackObjs           15698
IndCallSites        310
TotalPAGEdges       936876
LocalVarInRecur     997
BitCastNumber       39564
CopysNum            67318
AddrsNum            60098
GepsNum             110596
ReturnsNum          41114
CallsNum            115661
StoresNum           41491
LoadsNum            24828
FSObjNum            46140
FIObjNum            3350
ConstArrayObj       13
VarArrayObj         176
ConstStructObj      520
VarStructObj        10728
NonPtrObj           35086
MaxStructSize       446
TotalCallSite       171652
BBWith3Succ         599
BBWith2Succ         24917
-------------------------------------------------------
AvgPtsSetSize       499.634
AvgTopLvlPtsSize    980.71
SCCDetectTime       18.878
CopyGepTime         7745.54
TotalTime           9134.25
CollapseTime        1834.23
LoadStoreTime       1352.9
SCCMergeTime        9.7
UpdateCGTime        0.039
TotalStoreInst      55353
TotalLoadInst       36507
NumOfSCCDetect      9
MemObjects          49492
TotalObjects        85256
DYFieldPtrs         2856
TotalPointers       667414
Pointers            664558
Iterations          9
DYFieldObjs         35764
IndCallSites        310
NodesInCycles       41758
TotalPAGEdges       422573
PointsToConstPtr    0
PointsToBlkPtr      7503
NullPointer         878
CopysNum            250362
AddrsNum            56370
GepsNum             107031
StoresNum           41128
LoadsNum            24052
TotalCycleNum       1910
TotalPWCCycleNum    71
CGNodeNum           734575
MaxPtsSetSize       4913
IndEdgeSolved       3147
CopyProcessed       567966
AddrProcessed       60098
GepProcessed        176787
StoreProcessed      4635767
LoadProcessed       12810408
MaxNodesInSCC       31737
#######################################################
BRUNCH_STAT SEA_TIME_PTA_MS 9104238
Warning: SMC: 	Applied negative offsets, overriding offset as 0
Warning: SMC: 	Applied negative offsets, overriding offset as 0
Warning: SMC: 	Applied negative offsets, overriding offset as 0
Warning: SMC: 	Applied negative offsets, overriding offset as 0
Warning: SMC: 	Applied negative offsets, overriding offset as 0
Warning: SMC: 	Applied negative offsets, overriding offset as 0
Warning: SMC: 	Applied negative offsets, overriding offset as 0
Warning: SMC: 	Applied negative offsets, overriding offset as 0
Warning: SMC: 	Applied negative offsets, overriding offset as 0
Warning: SMC: 	Applied negative offsets, overriding offset as 0
Warning: SMC: 	Applied negative offsets, overriding offset as 0
Warning: SMC: 	Applied negative offsets, overriding offset as 0
Warning: SMC: 	Applied negative offsets, overriding offset as 0
Warning: SMC: 	Applied negative offsets, overriding offset as 0
Warning: SMC: 	Applied negative offsets, overriding offset as 0
Warning: SMC: 	Applied negative offsets, overriding offset as 0
Warning: SMC: 	Applied negative offsets, overriding offset as 0
Warning: SMC: 	Applied negative offsets, overriding offset as 0
Warning: SMC: 	Applied negative offsets, overriding offset as 0
Warning: SMC: 	Applied negative offsets, overriding offset as 0
Warning: SMC: 	Applied negative offsets, overriding offset as 0
Warning: SMC: 	Applied negative offsets, overriding offset as 0
Warning: SMC: 	Applied negative offsets, overriding offset as 0
Warning: SMC: 	Applied negative offsets, overriding offset as 0
Warning: SMC: 	Applied negative offsets, overriding offset as 0
Warning: SMC: 	Applied negative offsets, overriding offset as 0
Warning: SMC: 	Applied negative offsets, overriding offset as 0
Warning: SMC: 	Applied negative offsets, overriding offset as 0
Warning: SMC: 	Applied negative offsets, overriding offset as 0
Warning: SMC: 	Applied negative offsets, overriding offset as 0
Warning: SMC: 	Applied negative offsets, overriding offset as 0
Warning: SMC: 	Applied negative offsets, overriding offset as 0
Warning: SMC: 	Applied negative offsets, overriding offset as 0
Warning: SMC: 	Applied negative offsets, overriding offset as 0
Warning: SMC: 	Applied negative offsets, overriding offset as 0
Warning: SMC: 	Applied negative offsets, overriding offset as 0
Warning: SMC: 	Applied negative offsets, overriding offset as 0
Warning: SMC: 	Applied negative offsets, overriding offset as 0
Warning: SMC: 	Applied negative offsets, overriding offset as 0
Warning: SMC: 	Applied negative offsets, overriding offset as 0
Warning: SMC: 	Applied negative offsets, overriding offset as 0
Warning: SMC: 	Applied negative offsets, overriding offset as 0
Warning: SMC: 	Applied negative offsets, overriding offset as 0
Warning: SMC: 	Applied negative offsets, overriding offset as 0
Warning: SMC: 	Applied negative offsets, overriding offset as 0
Warning: SMC: 	Applied negative offsets, overriding offset as 0
Warning: SMC: 	Applied negative offsets, overriding offset as 0
Warning: SMC: 	Applied negative offsets, overriding offset as 0
Warning: SMC: 	Applied negative offsets, overriding offset as 0
Warning: SMC: 	Applied negative offsets, overriding offset as 0
Warning: SMC: 	Applied negative offsets, overriding offset as 0
Warning: SMC: 	Applied negative offsets, overriding offset as 0
Warning: SMC: 	Applied negative offsets, overriding offset as 0
Warning: SMC: 	Applied negative offsets, overriding offset as 0
Warning: SMC: 	Applied negative offsets, overriding offset as 0
Warning: SMC: 	Applied negative offsets, overriding offset as 0
Warning: SMC: 	Applied negative offsets, overriding offset as 0
Warning: SMC: 	Applied negative offsets, overriding offset as 0
Warning: SMC: 	Applied negative offsets, overriding offset as 0
Warning: SMC: 	Applied negative offsets, overriding offset as 0
Warning: SMC: 	Applied negative offsets, overriding offset as 0
Warning: SMC: 	Applied negative offsets, overriding offset as 0
Warning: SMC: 	Applied negative offsets, overriding offset as 0
Warning: SMC: 	Applied negative offsets, overriding offset as 0
Warning: SMC: 	Applied negative offsets, overriding offset as 0
Warning: SMC: 	Applied negative offsets, overriding offset as 0
Warning: SMC: 	Applied negative offsets, overriding offset as 0
Warning: SMC: 	Applied negative offsets, overriding offset as 0
Warning: SMC: 	Applied negative offsets, overriding offset as 0
Warning: SMC: 	Applied negative offsets, overriding offset as 0
Warning: SMC: 	Applied negative offsets, overriding offset as 0
Warning: SMC: 	Applied negative offsets, overriding offset as 0
Warning: SMC: 	Applied negative offsets, overriding offset as 0
Warning: SMC: 	Applied negative offsets, overriding offset as 0
Warning: SMC: 	Applied negative offsets, overriding offset as 0
Warning: SMC: 	Applied negative offsets, overriding offset as 0
Warning: SMC: 	Applied negative offsets, overriding offset as 0
Warning: SMC: 	Applied negative offsets, overriding offset as 0
Warning: SMC: 	Applied negative offsets, overriding offset as 0
Warning: SMC: 	Applied negative offsets, overriding offset as 0
Warning: SMC: 	Applied negative offsets, overriding offset as 0
Warning: SMC: 	Applied negative offsets, overriding offset as 0
Warning: SMC: 	Applied negative offsets, overriding offset as 0
Warning: SMC: 	Applied negative offsets, overriding offset as 0
Warning: SMC: 	Applied negative offsets, overriding offset as 0
Warning: SMC: 	Applied negative offsets, overriding offset as 0
Warning: SMC: 	Applied negative offsets, overriding offset as 0
Warning: SMC: 	Applied negative offsets, overriding offset as 0
Warning: SMC: 	Applied negative offsets, overriding offset as 0
Warning: SMC: 	Applied negative offsets, overriding offset as 0
Warning: SMC: 	Applied negative offsets, overriding offset as 0
Warning: SMC: 	Applied negative offsets, overriding offset as 0
Warning: SMC: 	Applied negative offsets, overriding offset as 0
Warning: SMC: 	Applied negative offsets, overriding offset as 0
Warning: SMC: 	Applied negative offsets, overriding offset as 0
Warning: SMC: 	Applied negative offsets, overriding offset as 0
Warning: SMC: 	Applied negative offsets, overriding offset as 0
Warning: SMC: 	Applied negative offsets, overriding offset as 0
Warning: SMC: 	Applied negative offsets, overriding offset as 0
Warning: SMC: 	Applied negative offsets, overriding offset as 0
Warning: SMC: 	Applied negative offsets, overriding offset as 0
Warning: SMC: 	Applied negative offsets, overriding offset as 0
Warning: SMC: 	Applied negative offsets, overriding offset as 0
Warning: SMC: 	Applied negative offsets, overriding offset as 0

[startup+9162.3 s]
/proc/loadavg: 1.23 1.14 1.10 2/931 19205
/proc/meminfo: memFree=57299896/131989204 swapFree=244112016/244398076
[pid=25820] ppid=25819 vsize=18229308 memory=18183068 CPUtime=9162.47 cores=0-39
/proc/25820/stat : 25820 (seapp) R 25819 25820 40453 34836 17777 4194304 5879825 0 0 0 910938 5309 0 0 20 0 1 0 477958338 18666811392 4545767 18446744073709551615 4194304 21451464 140736584440000 0 0 0 0 0 1098931967 0 0 0 17 10 0 0 0 0 0 21459200 21708072 39727104 140736584442556 140736584442907 140736584442907 140736584445884 0
/proc/25820/statm: 4557327 4545767 3546 4214 0 4546302 0
Current children cumulated CPU time: 9162.47 s
Current children cumulated vsize: 18229308 KiB
Current children cumulated memory: 18183068 KiB
Warning: SMC: 	Applied negative offsets, overriding offset as 0
Warning: SMC: 	Applied negative offsets, overriding offset as 0
Warning: SMC: 	Applied negative offsets, overriding offset as 0
Warning: SMC: 	Applied negative offsets, overriding offset as 0
Warning: SMC: 	Applied negative offsets, overriding offset as 0
Warning: SMC: 	Applied negative offsets, overriding offset as 0
Warning: SMC: 	Applied negative offsets, overriding offset as 0
Warning: SMC: 	Applied negative offsets, overriding offset as 0
Warning: SMC: 	Applied negative offsets, overriding offset as 0
Warning: SMC: 	Applied negative offsets, overriding offset as 0
Warning: SMC: 	Applied negative offsets, overriding offset as 0
Warning: SMC: 	Applied negative offsets, overriding offset as 0
Warning: SMC: 	Applied negative offsets, overriding offset as 0
Warning: SMC: 	Applied negative offsets, overriding offset as 0
Warning: SMC: 	Applied negative offsets, overriding offset as 0
Warning: SMC: 	Applied negative offsets, overriding offset as 0
Warning: SMC: 	Applied negative offsets, overriding offset as 0
Warning: SMC: 	Applied negative offsets, overriding offset as 0
Warning: SMC: 	Applied negative offsets, overriding offset as 0
Warning: SMC: 	Applied negative offsets, overriding offset as 0
Warning: SMC: 	Applied negative offsets, overriding offset as 0
Warning: SMC: 	Applied negative offsets, overriding offset as 0
Warning: SMC: 	Applied negative offsets, overriding offset as 0
Warning: SMC: 	Applied negative offsets, overriding offset as 0
Warning: SMC: 	Applied negative offsets, overriding offset as 0
Warning: SMC: 	Applied negative offsets, overriding offset as 0
Warning: SMC: 	Applied negative offsets, overriding offset as 0
Warning: SMC: 	Applied negative offsets, overriding offset as 0
Warning: SMC: 	Applied negative offsets, overriding offset as 0
BRUNCH_STAT SEA_TIME_SMC_ANALYSIS_MS 6398

=========== Start of Simple Memory Check Stats ===========
Format:	All instructions (Heap/Stack/Global)

Discovered memory instructions	91761
Discovered allocation sites	14020	(944/12497/579)
Interesting allocation sites	1620	(229/1039/352)
Other allocation sites		5959	(567/5133/259)
Total Simple AS to instrument	4859123
Interesting <Barrier, AllocSite> pairs	1676036
Total <Barrier, AllocSite> pairs	16346982
BRUNCH_STAT SMC_ALL_AS 14020
BRUNCH_STAT SMC_AS_BARRIER_INTERESTING 1676036
BRUNCH_STAT SMC_AS_BARRIER_CHECKS 16346982
BRUNCH_STAT SMC_AS_BARRIER_TOTAL 17140293


Warning: SMC: exiting without instrumenting (--smc-analyze-only)
BRUNCH_STAT PTA_RSS_KB 19633028

[startup+9186.26 s]
# the end of solver process 25820 was just reported to runsolver
# cumulated CPU time of all completed processes:  user=9131.47 s, system=54.9091 s

Solver just ended.
??? end of watcher thread
Dumping a history of the last processes samples

[startup+9164.8 s]
/proc/loadavg: 1.23 1.14 1.10 2/931 19227
/proc/meminfo: memFree=57248000/131989204 swapFree=244112016/244398076
[pid=25820] ppid=25819 vsize=18328808 memory=18288996 CPUtime=9164.97 cores=0-39
/proc/25820/stat : 25820 (seapp) R 25819 25820 40453 34836 17777 4194304 5906518 0 0 0 911183 5314 0 0 20 0 1 0 477958338 18768699392 4572249 18446744073709551615 4194304 21451464 140736584440000 0 0 0 0 0 1098931967 0 0 0 17 10 0 0 0 0 0 21459200 21708072 39727104 140736584442556 140736584442907 140736584442907 140736584445884 0
/proc/25820/statm: 4582202 4572249 3562 4214 0 4571177 0
Current children cumulated CPU time: 9164.97 s
Current children cumulated vsize: 18328808 KiB
Current children cumulated memory: 18288996 KiB

[startup+9177.6 s]
/proc/loadavg: 1.18 1.13 1.10 2/931 19390
/proc/meminfo: memFree=57516312/131989204 swapFree=244112016/244398076
[pid=25820] ppid=25819 vsize=17935932 memory=17906184 CPUtime=9177.77 cores=0-39
/proc/25820/stat : 25820 (seapp) R 25819 25820 40453 34836 17777 4194304 6462917 0 0 0 912372 5405 0 0 20 0 1 0 477958338 18366394368 4476546 18446744073709551615 4194304 21451464 140736584440000 0 0 0 0 0 1098931967 0 0 0 17 10 0 0 0 0 0 21459200 21708072 39727104 140736584442556 140736584442907 140736584442907 140736584445884 0
/proc/25820/statm: 4483983 4476546 3578 4214 0 4472958 0
Current children cumulated CPU time: 9177.77 s
Current children cumulated vsize: 17935932 KiB
Current children cumulated memory: 17906184 KiB

[startup+9180.8 s]
/proc/loadavg: 1.16 1.13 1.10 2/931 19422
/proc/meminfo: memFree=57528544/131989204 swapFree=244112016/244398076
[pid=25820] ppid=25819 vsize=17921592 memory=17891848 CPUtime=9180.97 cores=0-39
/proc/25820/stat : 25820 (seapp) R 25819 25820 40453 34836 17777 4194304 6474146 0 0 0 912689 5408 0 0 20 0 1 0 477958338 18351710208 4472962 18446744073709551615 4194304 21451464 140736584440000 0 0 0 0 0 1098931967 0 0 0 17 10 0 0 0 0 0 21459200 21708072 39727104 140736584442556 140736584442907 140736584442907 140736584445884 0
/proc/25820/statm: 4480398 4472962 3578 4214 0 4469373 0
Current children cumulated CPU time: 9180.97 s
Current children cumulated vsize: 17921592 KiB
Current children cumulated memory: 17891848 KiB

[startup+9184 s]*
/proc/loadavg: 1.16 1.13 1.10 3/931 19477
/proc/meminfo: memFree=57529468/131989204 swapFree=244112016/244398076
[pid=25820] ppid=25819 vsize=17921592 memory=17891848 CPUtime=9184.19 cores=0-39
/proc/25820/stat : 25820 (seapp) R 25819 25820 40453 34836 17777 4194304 6474178 0 0 0 913007 5412 0 0 20 0 1 0 477958338 18351710208 4472962 18446744073709551615 4194304 21451464 140736584440000 0 0 0 0 0 1098931967 0 0 0 17 10 0 0 0 0 0 21459200 21708072 39727104 140736584442556 140736584442907 140736584442907 140736584445884 0
/proc/25820/statm: 4480398 4472962 3578 4214 0 4469373 0
Current children cumulated CPU time: 9184.19 s
Current children cumulated vsize: 17921592 KiB
Current children cumulated memory: 17891848 KiB

[startup+9185.6 s]*
/proc/loadavg: 1.15 1.12 1.10 2/931 19505
/proc/meminfo: memFree=57583704/131989204 swapFree=244112016/244398076
Current children cumulated CPU time: 0 s
Current children cumulated vsize: 0 KiB
Current children cumulated memory: 0 KiB

[startup+9186 s]*
/proc/loadavg: 1.15 1.12 1.10 2/931 19505
/proc/meminfo: memFree=66544496/131989204 swapFree=244112016/244398076
Current children cumulated CPU time: 0 s
Current children cumulated vsize: 0 KiB
Current children cumulated memory: 0 KiB

[startup+9186.2 s]
/proc/loadavg: 1.15 1.12 1.10 2/931 19505
/proc/meminfo: memFree=66544496/131989204 swapFree=244112016/244398076
Current children cumulated CPU time: 0 s
Current children cumulated vsize: 0 KiB
Current children cumulated memory: 0 KiB

Child status: 0
Real time (s): 9186.26
CPU time (s): 9186.38
CPU user time (s): 9131.47
CPU system time (s): 54.9091
CPU usage (%): 100.001
Max. virtual memory (cumulated for all children) (KiB): 19672820
Max. memory (cumulated for all children) (KiB): 19633028

getrusage(RUSAGE_CHILDREN,...) data:
user time used= 9131.47
system time used= 54.9091
maximum resident set size= 19633028
integral shared memory size= 0
integral unshared data size= 0
integral unshared stack size= 0
page reclaims= 6510589
page faults= 0
swaps= 0
block input operations= 0
block output operations= 31968
messages sent= 0
messages received= 0
signals received= 0
voluntary context switches= 5
involuntary context switches= 10404


# summary of solver processes directly reported to runsolver:
#   pid: 25820
#   total CPU time (s): 9186.38
#   total CPU user time (s): 9131.47
#   total CPU system time (s): 54.9091

??? end of timestamper thread
runsolver used 92.3808 second user time and 131.614 second system time

The end
BRUNCH_STAT TOTAL_TIME_SMC_MS 9186340
BRUNCH_STAT ORIGINAL_BITCODE_NAME opt.bc
BRUNCH_STAT ORIGINAL_BITCODE_SIZE_KB 142064
BRUNCH_STAT FINAL_BITCODE_NAME opt.n.pp.bc
BRUNCH_STAT FINAL_BITCODE_SIZE_KB 16012
BRUNCH_STAT EXPERIMENT_TIME 19/03/05-23:07:56
